

Microchip Technology PIC18 LITE Macro Assembler V1.43 build -156212558 
                                                                                               Sun Nov 14 22:10:32 2021

Microchip Technology Omniscient Code Generator v1.43 (Free mode) build 201707250354
     1                           	processor	18F4550
     2                           	fnconf	rparam,??,?,0
     3                           	opt	pw 120
     4                           	opt	lm
     5                           	psect	mediumconst,global,reloc=2,class=MEDIUMCONST,delta=1,noexec
     6                           	psect	cinit,global,reloc=2,class=CODE,delta=1
     7                           	psect	bssCOMRAM,global,class=COMRAM,space=1,delta=1,noexec
     8                           	psect	cstackCOMRAM,global,class=COMRAM,space=1,delta=1,noexec
     9                           	psect	text0,global,reloc=2,class=CODE,delta=1
    10                           	psect	text1,global,reloc=2,class=CODE,delta=1
    11                           	psect	intcode,global,reloc=2,class=CODE,delta=1
    12                           	psect	intcode_body,global,reloc=2,class=CODE,delta=1
    13                           	psect	intsave_regs,global,class=BIGRAM,space=1,delta=1,noexec
    14                           	psect	rparam,global,class=COMRAM,space=1,delta=1,noexec
    15                           	psect	temp,global,ovrld,common,class=COMRAM,space=1,delta=1
    16  0000                     
    17                           ; Version 1.43
    18                           ; Generated 25/07/2017 GMT
    19                           ; 
    20                           ; Copyright © 2017, Microchip Technology Inc. and its subsidiaries ("Microchip")
    21                           ; All rights reserved.
    22                           ; 
    23                           ; This software is developed by Microchip Technology Inc. and its subsidiaries ("Microch
      +                          ip").
    24                           ; 
    25                           ; Redistribution and use in source and binary forms, with or without modification, are
    26                           ; permitted provided that the following conditions are met:
    27                           ; 
    28                           ;     1. Redistributions of source code must retain the above copyright notice, this lis
      +                          t of
    29                           ;        conditions and the following disclaimer.
    30                           ; 
    31                           ;     2. Redistributions in binary form must reproduce the above copyright notice, this 
      +                          list
    32                           ;        of conditions and the following disclaimer in the documentation and/or other
    33                           ;        materials provided with the distribution.
    34                           ; 
    35                           ;     3. Microchip's name may not be used to endorse or promote products derived from th
      +                          is
    36                           ;        software without specific prior written permission.
    37                           ; 
    38                           ; THIS SOFTWARE IS PROVIDED BY MICROCHIP "AS IS" AND ANY EXPRESS OR IMPLIED WARRANTIES,
    39                           ; INCLUDING, BUT NOT LIMITED TO, THE IMPLIED WARRANTIES OF MERCHANTABILITY AND FITNESS F
      +                          OR
    40                           ; PURPOSE ARE DISCLAIMED.  IN NO EVENT SHALL MICROCHIP BE LIABLE FOR ANY DIRECT, INDIREC
      +                          T,
    41                           ; INCIDENTAL, SPECIAL, EXEMPLARY, OR CONSEQUENTIAL DAMAGES (INCLUDING BUT NOT LIMITED TO
    42                           ; PROCUREMENT OF SUBSTITUTE GOODS OR SERVICES; LOSS OF USE, DATA OR PROFITS; OR BUSINESS
    43                           ; INTERRUPTION) HOWSOEVER CAUSED AND ON ANY THEORY OF LIABILITY, WHETHER IN CONTRACT, ST
      +                          RICT
    44                           ; LIABILITY, OR TORT (INCLUDING NEGLIGENCE OR OTHERWISE) ARISING IN ANY WAY OUT OF THE U
      +                          SE OF
    45                           ; THIS SOFTWARE, EVEN IF ADVISED OF THE POSSIBILITY OF SUCH DAMAGE.
    46                           ; 
    47                           ; 
    48                           ; Code-generator required, PIC18F4550 Definitions
    49                           ; 
    50                           ; SFR Addresses
    51  0000                     
    52                           	psect	mediumconst
    53  00773A                     __pmediumconst:
    54                           	opt stack 0
    55  00773A  00                 	db	0
    56  00773B                     _Font8x8:
    57                           	opt stack 0
    58  00773B  00                 	db	0
    59  00773C  00                 	db	0
    60  00773D  00                 	db	0
    61  00773E  00                 	db	0
    62  00773F  00                 	db	0
    63  007740  00                 	db	0
    64  007741  00                 	db	0
    65  007742  00                 	db	0
    66  007743  00                 	db	0
    67  007744  00                 	db	0
    68  007745  00                 	db	0
    69  007746  00                 	db	0
    70  007747  00                 	db	0
    71  007748  00                 	db	0
    72  007749  00                 	db	0
    73  00774A  00                 	db	0
    74  00774B  00                 	db	0
    75  00774C  00                 	db	0
    76  00774D  00                 	db	0
    77  00774E  00                 	db	0
    78  00774F  00                 	db	0
    79  007750  00                 	db	0
    80  007751  00                 	db	0
    81  007752  00                 	db	0
    82  007753  00                 	db	0
    83  007754  00                 	db	0
    84  007755  00                 	db	0
    85  007756  00                 	db	0
    86  007757  00                 	db	0
    87  007758  00                 	db	0
    88  007759  00                 	db	0
    89  00775A  00                 	db	0
    90  00775B  00                 	db	0
    91  00775C  00                 	db	0
    92  00775D  00                 	db	0
    93  00775E  00                 	db	0
    94  00775F  00                 	db	0
    95  007760  00                 	db	0
    96  007761  00                 	db	0
    97  007762  00                 	db	0
    98  007763  00                 	db	0
    99  007764  00                 	db	0
   100  007765  00                 	db	0
   101  007766  00                 	db	0
   102  007767  00                 	db	0
   103  007768  00                 	db	0
   104  007769  00                 	db	0
   105  00776A  00                 	db	0
   106  00776B  00                 	db	0
   107  00776C  00                 	db	0
   108  00776D  00                 	db	0
   109  00776E  00                 	db	0
   110  00776F  00                 	db	0
   111  007770  00                 	db	0
   112  007771  00                 	db	0
   113  007772  00                 	db	0
   114  007773  00                 	db	0
   115  007774  00                 	db	0
   116  007775  00                 	db	0
   117  007776  00                 	db	0
   118  007777  00                 	db	0
   119  007778  00                 	db	0
   120  007779  00                 	db	0
   121  00777A  00                 	db	0
   122  00777B  00                 	db	0
   123  00777C  00                 	db	0
   124  00777D  00                 	db	0
   125  00777E  00                 	db	0
   126  00777F  00                 	db	0
   127  007780  00                 	db	0
   128  007781  00                 	db	0
   129  007782  00                 	db	0
   130  007783  00                 	db	0
   131  007784  00                 	db	0
   132  007785  00                 	db	0
   133  007786  00                 	db	0
   134  007787  00                 	db	0
   135  007788  00                 	db	0
   136  007789  00                 	db	0
   137  00778A  00                 	db	0
   138  00778B  00                 	db	0
   139  00778C  00                 	db	0
   140  00778D  00                 	db	0
   141  00778E  00                 	db	0
   142  00778F  00                 	db	0
   143  007790  00                 	db	0
   144  007791  00                 	db	0
   145  007792  00                 	db	0
   146  007793  00                 	db	0
   147  007794  00                 	db	0
   148  007795  00                 	db	0
   149  007796  00                 	db	0
   150  007797  00                 	db	0
   151  007798  00                 	db	0
   152  007799  00                 	db	0
   153  00779A  00                 	db	0
   154  00779B  00                 	db	0
   155  00779C  00                 	db	0
   156  00779D  00                 	db	0
   157  00779E  00                 	db	0
   158  00779F  00                 	db	0
   159  0077A0  00                 	db	0
   160  0077A1  00                 	db	0
   161  0077A2  00                 	db	0
   162  0077A3  00                 	db	0
   163  0077A4  00                 	db	0
   164  0077A5  00                 	db	0
   165  0077A6  00                 	db	0
   166  0077A7  00                 	db	0
   167  0077A8  00                 	db	0
   168  0077A9  00                 	db	0
   169  0077AA  00                 	db	0
   170  0077AB  00                 	db	0
   171  0077AC  00                 	db	0
   172  0077AD  00                 	db	0
   173  0077AE  00                 	db	0
   174  0077AF  00                 	db	0
   175  0077B0  00                 	db	0
   176  0077B1  00                 	db	0
   177  0077B2  00                 	db	0
   178  0077B3  00                 	db	0
   179  0077B4  00                 	db	0
   180  0077B5  00                 	db	0
   181  0077B6  00                 	db	0
   182  0077B7  00                 	db	0
   183  0077B8  00                 	db	0
   184  0077B9  00                 	db	0
   185  0077BA  00                 	db	0
   186  0077BB  00                 	db	0
   187  0077BC  00                 	db	0
   188  0077BD  00                 	db	0
   189  0077BE  00                 	db	0
   190  0077BF  00                 	db	0
   191  0077C0  00                 	db	0
   192  0077C1  00                 	db	0
   193  0077C2  00                 	db	0
   194  0077C3  00                 	db	0
   195  0077C4  00                 	db	0
   196  0077C5  00                 	db	0
   197  0077C6  00                 	db	0
   198  0077C7  00                 	db	0
   199  0077C8  00                 	db	0
   200  0077C9  00                 	db	0
   201  0077CA  00                 	db	0
   202  0077CB  00                 	db	0
   203  0077CC  00                 	db	0
   204  0077CD  00                 	db	0
   205  0077CE  00                 	db	0
   206  0077CF  00                 	db	0
   207  0077D0  00                 	db	0
   208  0077D1  00                 	db	0
   209  0077D2  00                 	db	0
   210  0077D3  00                 	db	0
   211  0077D4  00                 	db	0
   212  0077D5  00                 	db	0
   213  0077D6  00                 	db	0
   214  0077D7  00                 	db	0
   215  0077D8  00                 	db	0
   216  0077D9  00                 	db	0
   217  0077DA  00                 	db	0
   218  0077DB  00                 	db	0
   219  0077DC  00                 	db	0
   220  0077DD  00                 	db	0
   221  0077DE  00                 	db	0
   222  0077DF  00                 	db	0
   223  0077E0  00                 	db	0
   224  0077E1  00                 	db	0
   225  0077E2  00                 	db	0
   226  0077E3  00                 	db	0
   227  0077E4  00                 	db	0
   228  0077E5  00                 	db	0
   229  0077E6  00                 	db	0
   230  0077E7  00                 	db	0
   231  0077E8  00                 	db	0
   232  0077E9  00                 	db	0
   233  0077EA  00                 	db	0
   234  0077EB  00                 	db	0
   235  0077EC  00                 	db	0
   236  0077ED  00                 	db	0
   237  0077EE  00                 	db	0
   238  0077EF  00                 	db	0
   239  0077F0  00                 	db	0
   240  0077F1  00                 	db	0
   241  0077F2  00                 	db	0
   242  0077F3  00                 	db	0
   243  0077F4  00                 	db	0
   244  0077F5  00                 	db	0
   245  0077F6  00                 	db	0
   246  0077F7  00                 	db	0
   247  0077F8  00                 	db	0
   248  0077F9  00                 	db	0
   249  0077FA  00                 	db	0
   250  0077FB  00                 	db	0
   251  0077FC  00                 	db	0
   252  0077FD  00                 	db	0
   253  0077FE  00                 	db	0
   254  0077FF  00                 	db	0
   255  007800  00                 	db	0
   256  007801  00                 	db	0
   257  007802  00                 	db	0
   258  007803  00                 	db	0
   259  007804  00                 	db	0
   260  007805  00                 	db	0
   261  007806  00                 	db	0
   262  007807  00                 	db	0
   263  007808  00                 	db	0
   264  007809  00                 	db	0
   265  00780A  00                 	db	0
   266  00780B  00                 	db	0
   267  00780C  00                 	db	0
   268  00780D  00                 	db	0
   269  00780E  00                 	db	0
   270  00780F  00                 	db	0
   271  007810  00                 	db	0
   272  007811  00                 	db	0
   273  007812  00                 	db	0
   274  007813  00                 	db	0
   275  007814  00                 	db	0
   276  007815  00                 	db	0
   277  007816  00                 	db	0
   278  007817  00                 	db	0
   279  007818  00                 	db	0
   280  007819  00                 	db	0
   281  00781A  00                 	db	0
   282  00781B  00                 	db	0
   283  00781C  00                 	db	0
   284  00781D  00                 	db	0
   285  00781E  00                 	db	0
   286  00781F  00                 	db	0
   287  007820  00                 	db	0
   288  007821  00                 	db	0
   289  007822  00                 	db	0
   290  007823  00                 	db	0
   291  007824  00                 	db	0
   292  007825  00                 	db	0
   293  007826  00                 	db	0
   294  007827  00                 	db	0
   295  007828  00                 	db	0
   296  007829  00                 	db	0
   297  00782A  00                 	db	0
   298  00782B  00                 	db	0
   299  00782C  00                 	db	0
   300  00782D  00                 	db	0
   301  00782E  00                 	db	0
   302  00782F  00                 	db	0
   303  007830  00                 	db	0
   304  007831  00                 	db	0
   305  007832  00                 	db	0
   306  007833  00                 	db	0
   307  007834  00                 	db	0
   308  007835  00                 	db	0
   309  007836  00                 	db	0
   310  007837  00                 	db	0
   311  007838  00                 	db	0
   312  007839  00                 	db	0
   313  00783A  00                 	db	0
   314  00783B  00                 	db	0
   315  00783C  00                 	db	0
   316  00783D  00                 	db	0
   317  00783E  00                 	db	0
   318  00783F  00                 	db	0
   319  007840  00                 	db	0
   320  007841  00                 	db	0
   321  007842  00                 	db	0
   322  007843  00                 	db	0
   323  007844  06                 	db	6
   324  007845  5F                 	db	95
   325  007846  5F                 	db	95
   326  007847  06                 	db	6
   327  007848  00                 	db	0
   328  007849  00                 	db	0
   329  00784A  00                 	db	0
   330  00784B  00                 	db	0
   331  00784C  07                 	db	7
   332  00784D  07                 	db	7
   333  00784E  00                 	db	0
   334  00784F  07                 	db	7
   335  007850  07                 	db	7
   336  007851  00                 	db	0
   337  007852  00                 	db	0
   338  007853  14                 	db	20
   339  007854  7F                 	db	127
   340  007855  7F                 	db	127
   341  007856  14                 	db	20
   342  007857  7F                 	db	127
   343  007858  7F                 	db	127
   344  007859  14                 	db	20
   345  00785A  00                 	db	0
   346  00785B  24                 	db	36
   347  00785C  2E                 	db	46
   348  00785D  6B                 	db	107
   349  00785E  6B                 	db	107
   350  00785F  3A                 	db	58
   351  007860  12                 	db	18
   352  007861  00                 	db	0
   353  007862  00                 	db	0
   354  007863  46                 	db	70
   355  007864  66                 	db	102
   356  007865  30                 	db	48
   357  007866  18                 	db	24
   358  007867  0C                 	db	12
   359  007868  66                 	db	102
   360  007869  62                 	db	98
   361  00786A  00                 	db	0
   362  00786B  30                 	db	48
   363  00786C  7A                 	db	122
   364  00786D  4F                 	db	79
   365  00786E  5D                 	db	93
   366  00786F  37                 	db	55
   367  007870  7A                 	db	122
   368  007871  48                 	db	72
   369  007872  00                 	db	0
   370  007873  04                 	db	4
   371  007874  07                 	db	7
   372  007875  03                 	db	3
   373  007876  00                 	db	0
   374  007877  00                 	db	0
   375  007878  00                 	db	0
   376  007879  00                 	db	0
   377  00787A  00                 	db	0
   378  00787B  00                 	db	0
   379  00787C  1C                 	db	28
   380  00787D  3E                 	db	62
   381  00787E  63                 	db	99
   382  00787F  41                 	db	65
   383  007880  00                 	db	0
   384  007881  00                 	db	0
   385  007882  00                 	db	0
   386  007883  00                 	db	0
   387  007884  41                 	db	65
   388  007885  63                 	db	99
   389  007886  3E                 	db	62
   390  007887  1C                 	db	28
   391  007888  00                 	db	0
   392  007889  00                 	db	0
   393  00788A  00                 	db	0
   394  00788B  08                 	db	8
   395  00788C  2A                 	db	42
   396  00788D  3E                 	db	62
   397  00788E  1C                 	db	28
   398  00788F  1C                 	db	28
   399  007890  3E                 	db	62
   400  007891  2A                 	db	42
   401  007892  08                 	db	8
   402  007893  08                 	db	8
   403  007894  08                 	db	8
   404  007895  3E                 	db	62
   405  007896  3E                 	db	62
   406  007897  08                 	db	8
   407  007898  08                 	db	8
   408  007899  00                 	db	0
   409  00789A  00                 	db	0
   410  00789B  00                 	db	0
   411  00789C  80                 	db	128
   412  00789D  E0                 	db	224
   413  00789E  60                 	db	96
   414  00789F  00                 	db	0
   415  0078A0  00                 	db	0
   416  0078A1  00                 	db	0
   417  0078A2  00                 	db	0
   418  0078A3  08                 	db	8
   419  0078A4  08                 	db	8
   420  0078A5  08                 	db	8
   421  0078A6  08                 	db	8
   422  0078A7  08                 	db	8
   423  0078A8  08                 	db	8
   424  0078A9  00                 	db	0
   425  0078AA  00                 	db	0
   426  0078AB  00                 	db	0
   427  0078AC  00                 	db	0
   428  0078AD  60                 	db	96
   429  0078AE  60                 	db	96
   430  0078AF  00                 	db	0
   431  0078B0  00                 	db	0
   432  0078B1  00                 	db	0
   433  0078B2  00                 	db	0
   434  0078B3  60                 	db	96
   435  0078B4  30                 	db	48
   436  0078B5  18                 	db	24
   437  0078B6  0C                 	db	12
   438  0078B7  06                 	db	6
   439  0078B8  03                 	db	3
   440  0078B9  01                 	db	1
   441  0078BA  00                 	db	0
   442  0078BB  3E                 	db	62
   443  0078BC  7F                 	db	127
   444  0078BD  71                 	db	113
   445  0078BE  59                 	db	89
   446  0078BF  4D                 	db	77
   447  0078C0  7F                 	db	127
   448  0078C1  3E                 	db	62
   449  0078C2  00                 	db	0
   450  0078C3  40                 	db	64
   451  0078C4  42                 	db	66
   452  0078C5  7F                 	db	127
   453  0078C6  7F                 	db	127
   454  0078C7  40                 	db	64
   455  0078C8  40                 	db	64
   456  0078C9  00                 	db	0
   457  0078CA  00                 	db	0
   458  0078CB  62                 	db	98
   459  0078CC  73                 	db	115
   460  0078CD  59                 	db	89
   461  0078CE  49                 	db	73
   462  0078CF  6F                 	db	111
   463  0078D0  66                 	db	102
   464  0078D1  00                 	db	0
   465  0078D2  00                 	db	0
   466  0078D3  22                 	db	34
   467  0078D4  63                 	db	99
   468  0078D5  49                 	db	73
   469  0078D6  49                 	db	73
   470  0078D7  7F                 	db	127
   471  0078D8  36                 	db	54
   472  0078D9  00                 	db	0
   473  0078DA  00                 	db	0
   474  0078DB  18                 	db	24
   475  0078DC  1C                 	db	28
   476  0078DD  16                 	db	22
   477  0078DE  53                 	db	83
   478  0078DF  7F                 	db	127
   479  0078E0  7F                 	db	127
   480  0078E1  50                 	db	80
   481  0078E2  00                 	db	0
   482  0078E3  27                 	db	39
   483  0078E4  67                 	db	103
   484  0078E5  45                 	db	69
   485  0078E6  45                 	db	69
   486  0078E7  7D                 	db	125
   487  0078E8  39                 	db	57
   488  0078E9  00                 	db	0
   489  0078EA  00                 	db	0
   490  0078EB  3C                 	db	60
   491  0078EC  7E                 	db	126
   492  0078ED  4B                 	db	75
   493  0078EE  49                 	db	73
   494  0078EF  79                 	db	121
   495  0078F0  30                 	db	48
   496  0078F1  00                 	db	0
   497  0078F2  00                 	db	0
   498  0078F3  03                 	db	3
   499  0078F4  03                 	db	3
   500  0078F5  71                 	db	113
   501  0078F6  79                 	db	121
   502  0078F7  0F                 	db	15
   503  0078F8  07                 	db	7
   504  0078F9  00                 	db	0
   505  0078FA  00                 	db	0
   506  0078FB  36                 	db	54
   507  0078FC  7F                 	db	127
   508  0078FD  49                 	db	73
   509  0078FE  49                 	db	73
   510  0078FF  7F                 	db	127
   511  007900  36                 	db	54
   512  007901  00                 	db	0
   513  007902  00                 	db	0
   514  007903  06                 	db	6
   515  007904  4F                 	db	79
   516  007905  49                 	db	73
   517  007906  69                 	db	105
   518  007907  3F                 	db	63
   519  007908  1E                 	db	30
   520  007909  00                 	db	0
   521  00790A  00                 	db	0
   522  00790B  00                 	db	0
   523  00790C  00                 	db	0
   524  00790D  66                 	db	102
   525  00790E  66                 	db	102
   526  00790F  00                 	db	0
   527  007910  00                 	db	0
   528  007911  00                 	db	0
   529  007912  00                 	db	0
   530  007913  00                 	db	0
   531  007914  80                 	db	128
   532  007915  E6                 	db	230
   533  007916  66                 	db	102
   534  007917  00                 	db	0
   535  007918  00                 	db	0
   536  007919  00                 	db	0
   537  00791A  00                 	db	0
   538  00791B  08                 	db	8
   539  00791C  1C                 	db	28
   540  00791D  36                 	db	54
   541  00791E  63                 	db	99
   542  00791F  41                 	db	65
   543  007920  00                 	db	0
   544  007921  00                 	db	0
   545  007922  00                 	db	0
   546  007923  24                 	db	36
   547  007924  24                 	db	36
   548  007925  24                 	db	36
   549  007926  24                 	db	36
   550  007927  24                 	db	36
   551  007928  24                 	db	36
   552  007929  00                 	db	0
   553  00792A  00                 	db	0
   554  00792B  00                 	db	0
   555  00792C  41                 	db	65
   556  00792D  63                 	db	99
   557  00792E  36                 	db	54
   558  00792F  1C                 	db	28
   559  007930  08                 	db	8
   560  007931  00                 	db	0
   561  007932  00                 	db	0
   562  007933  02                 	db	2
   563  007934  03                 	db	3
   564  007935  51                 	db	81
   565  007936  59                 	db	89
   566  007937  0F                 	db	15
   567  007938  06                 	db	6
   568  007939  00                 	db	0
   569  00793A  00                 	db	0
   570  00793B  3E                 	db	62
   571  00793C  7F                 	db	127
   572  00793D  41                 	db	65
   573  00793E  5D                 	db	93
   574  00793F  5D                 	db	93
   575  007940  1F                 	db	31
   576  007941  1E                 	db	30
   577  007942  00                 	db	0
   578  007943  7C                 	db	124
   579  007944  7E                 	db	126
   580  007945  13                 	db	19
   581  007946  13                 	db	19
   582  007947  7E                 	db	126
   583  007948  7C                 	db	124
   584  007949  00                 	db	0
   585  00794A  00                 	db	0
   586  00794B  41                 	db	65
   587  00794C  7F                 	db	127
   588  00794D  7F                 	db	127
   589  00794E  49                 	db	73
   590  00794F  49                 	db	73
   591  007950  7F                 	db	127
   592  007951  36                 	db	54
   593  007952  00                 	db	0
   594  007953  1C                 	db	28
   595  007954  3E                 	db	62
   596  007955  63                 	db	99
   597  007956  41                 	db	65
   598  007957  41                 	db	65
   599  007958  63                 	db	99
   600  007959  22                 	db	34
   601  00795A  00                 	db	0
   602  00795B  41                 	db	65
   603  00795C  7F                 	db	127
   604  00795D  7F                 	db	127
   605  00795E  41                 	db	65
   606  00795F  63                 	db	99
   607  007960  3E                 	db	62
   608  007961  1C                 	db	28
   609  007962  00                 	db	0
   610  007963  41                 	db	65
   611  007964  7F                 	db	127
   612  007965  7F                 	db	127
   613  007966  49                 	db	73
   614  007967  5D                 	db	93
   615  007968  41                 	db	65
   616  007969  63                 	db	99
   617  00796A  00                 	db	0
   618  00796B  41                 	db	65
   619  00796C  7F                 	db	127
   620  00796D  7F                 	db	127
   621  00796E  49                 	db	73
   622  00796F  1D                 	db	29
   623  007970  01                 	db	1
   624  007971  03                 	db	3
   625  007972  00                 	db	0
   626  007973  1C                 	db	28
   627  007974  3E                 	db	62
   628  007975  63                 	db	99
   629  007976  41                 	db	65
   630  007977  51                 	db	81
   631  007978  73                 	db	115
   632  007979  72                 	db	114
   633  00797A  00                 	db	0
   634  00797B  7F                 	db	127
   635  00797C  7F                 	db	127
   636  00797D  08                 	db	8
   637  00797E  08                 	db	8
   638  00797F  7F                 	db	127
   639  007980  7F                 	db	127
   640  007981  00                 	db	0
   641  007982  00                 	db	0
   642  007983  00                 	db	0
   643  007984  41                 	db	65
   644  007985  7F                 	db	127
   645  007986  7F                 	db	127
   646  007987  41                 	db	65
   647  007988  00                 	db	0
   648  007989  00                 	db	0
   649  00798A  00                 	db	0
   650  00798B  30                 	db	48
   651  00798C  70                 	db	112
   652  00798D  40                 	db	64
   653  00798E  41                 	db	65
   654  00798F  7F                 	db	127
   655  007990  3F                 	db	63
   656  007991  01                 	db	1
   657  007992  00                 	db	0
   658  007993  41                 	db	65
   659  007994  7F                 	db	127
   660  007995  7F                 	db	127
   661  007996  08                 	db	8
   662  007997  1C                 	db	28
   663  007998  77                 	db	119
   664  007999  63                 	db	99
   665  00799A  00                 	db	0
   666  00799B  41                 	db	65
   667  00799C  7F                 	db	127
   668  00799D  7F                 	db	127
   669  00799E  41                 	db	65
   670  00799F  40                 	db	64
   671  0079A0  60                 	db	96
   672  0079A1  70                 	db	112
   673  0079A2  00                 	db	0
   674  0079A3  7F                 	db	127
   675  0079A4  7F                 	db	127
   676  0079A5  0E                 	db	14
   677  0079A6  1C                 	db	28
   678  0079A7  0E                 	db	14
   679  0079A8  7F                 	db	127
   680  0079A9  7F                 	db	127
   681  0079AA  00                 	db	0
   682  0079AB  7F                 	db	127
   683  0079AC  7F                 	db	127
   684  0079AD  06                 	db	6
   685  0079AE  0C                 	db	12
   686  0079AF  18                 	db	24
   687  0079B0  7F                 	db	127
   688  0079B1  7F                 	db	127
   689  0079B2  00                 	db	0
   690  0079B3  1C                 	db	28
   691  0079B4  3E                 	db	62
   692  0079B5  63                 	db	99
   693  0079B6  41                 	db	65
   694  0079B7  63                 	db	99
   695  0079B8  3E                 	db	62
   696  0079B9  1C                 	db	28
   697  0079BA  00                 	db	0
   698  0079BB  41                 	db	65
   699  0079BC  7F                 	db	127
   700  0079BD  7F                 	db	127
   701  0079BE  49                 	db	73
   702  0079BF  09                 	db	9
   703  0079C0  0F                 	db	15
   704  0079C1  06                 	db	6
   705  0079C2  00                 	db	0
   706  0079C3  1E                 	db	30
   707  0079C4  3F                 	db	63
   708  0079C5  21                 	db	33
   709  0079C6  71                 	db	113
   710  0079C7  7F                 	db	127
   711  0079C8  5E                 	db	94
   712  0079C9  00                 	db	0
   713  0079CA  00                 	db	0
   714  0079CB  41                 	db	65
   715  0079CC  7F                 	db	127
   716  0079CD  7F                 	db	127
   717  0079CE  09                 	db	9
   718  0079CF  19                 	db	25
   719  0079D0  7F                 	db	127
   720  0079D1  66                 	db	102
   721  0079D2  00                 	db	0
   722  0079D3  26                 	db	38
   723  0079D4  6F                 	db	111
   724  0079D5  4D                 	db	77
   725  0079D6  59                 	db	89
   726  0079D7  73                 	db	115
   727  0079D8  32                 	db	50
   728  0079D9  00                 	db	0
   729  0079DA  00                 	db	0
   730  0079DB  03                 	db	3
   731  0079DC  41                 	db	65
   732  0079DD  7F                 	db	127
   733  0079DE  7F                 	db	127
   734  0079DF  41                 	db	65
   735  0079E0  03                 	db	3
   736  0079E1  00                 	db	0
   737  0079E2  00                 	db	0
   738  0079E3  7F                 	db	127
   739  0079E4  7F                 	db	127
   740  0079E5  40                 	db	64
   741  0079E6  40                 	db	64
   742  0079E7  7F                 	db	127
   743  0079E8  7F                 	db	127
   744  0079E9  00                 	db	0
   745  0079EA  00                 	db	0
   746  0079EB  1F                 	db	31
   747  0079EC  3F                 	db	63
   748  0079ED  60                 	db	96
   749  0079EE  60                 	db	96
   750  0079EF  3F                 	db	63
   751  0079F0  1F                 	db	31
   752  0079F1  00                 	db	0
   753  0079F2  00                 	db	0
   754  0079F3  7F                 	db	127
   755  0079F4  7F                 	db	127
   756  0079F5  30                 	db	48
   757  0079F6  18                 	db	24
   758  0079F7  30                 	db	48
   759  0079F8  7F                 	db	127
   760  0079F9  7F                 	db	127
   761  0079FA  00                 	db	0
   762  0079FB  43                 	db	67
   763  0079FC  67                 	db	103
   764  0079FD  3C                 	db	60
   765  0079FE  18                 	db	24
   766  0079FF  3C                 	db	60
   767  007A00  67                 	db	103
   768  007A01  43                 	db	67
   769  007A02  00                 	db	0
   770  007A03  07                 	db	7
   771  007A04  4F                 	db	79
   772  007A05  78                 	db	120
   773  007A06  78                 	db	120
   774  007A07  4F                 	db	79
   775  007A08  07                 	db	7
   776  007A09  00                 	db	0
   777  007A0A  00                 	db	0
   778  007A0B  47                 	db	71
   779  007A0C  63                 	db	99
   780  007A0D  71                 	db	113
   781  007A0E  59                 	db	89
   782  007A0F  4D                 	db	77
   783  007A10  67                 	db	103
   784  007A11  73                 	db	115
   785  007A12  00                 	db	0
   786  007A13  00                 	db	0
   787  007A14  7F                 	db	127
   788  007A15  7F                 	db	127
   789  007A16  41                 	db	65
   790  007A17  41                 	db	65
   791  007A18  00                 	db	0
   792  007A19  00                 	db	0
   793  007A1A  00                 	db	0
   794  007A1B  01                 	db	1
   795  007A1C  03                 	db	3
   796  007A1D  06                 	db	6
   797  007A1E  0C                 	db	12
   798  007A1F  18                 	db	24
   799  007A20  30                 	db	48
   800  007A21  60                 	db	96
   801  007A22  00                 	db	0
   802  007A23  00                 	db	0
   803  007A24  41                 	db	65
   804  007A25  41                 	db	65
   805  007A26  7F                 	db	127
   806  007A27  7F                 	db	127
   807  007A28  00                 	db	0
   808  007A29  00                 	db	0
   809  007A2A  00                 	db	0
   810  007A2B  08                 	db	8
   811  007A2C  0C                 	db	12
   812  007A2D  06                 	db	6
   813  007A2E  03                 	db	3
   814  007A2F  06                 	db	6
   815  007A30  0C                 	db	12
   816  007A31  08                 	db	8
   817  007A32  00                 	db	0
   818  007A33  80                 	db	128
   819  007A34  80                 	db	128
   820  007A35  80                 	db	128
   821  007A36  80                 	db	128
   822  007A37  80                 	db	128
   823  007A38  80                 	db	128
   824  007A39  80                 	db	128
   825  007A3A  80                 	db	128
   826  007A3B  00                 	db	0
   827  007A3C  00                 	db	0
   828  007A3D  03                 	db	3
   829  007A3E  07                 	db	7
   830  007A3F  04                 	db	4
   831  007A40  00                 	db	0
   832  007A41  00                 	db	0
   833  007A42  00                 	db	0
   834  007A43  20                 	db	32
   835  007A44  74                 	db	116
   836  007A45  54                 	db	84
   837  007A46  54                 	db	84
   838  007A47  3C                 	db	60
   839  007A48  78                 	db	120
   840  007A49  40                 	db	64
   841  007A4A  00                 	db	0
   842  007A4B  41                 	db	65
   843  007A4C  7F                 	db	127
   844  007A4D  3F                 	db	63
   845  007A4E  48                 	db	72
   846  007A4F  48                 	db	72
   847  007A50  78                 	db	120
   848  007A51  30                 	db	48
   849  007A52  00                 	db	0
   850  007A53  38                 	db	56
   851  007A54  7C                 	db	124
   852  007A55  44                 	db	68
   853  007A56  44                 	db	68
   854  007A57  6C                 	db	108
   855  007A58  28                 	db	40
   856  007A59  00                 	db	0
   857  007A5A  00                 	db	0
   858  007A5B  30                 	db	48
   859  007A5C  78                 	db	120
   860  007A5D  48                 	db	72
   861  007A5E  49                 	db	73
   862  007A5F  3F                 	db	63
   863  007A60  7F                 	db	127
   864  007A61  40                 	db	64
   865  007A62  00                 	db	0
   866  007A63  38                 	db	56
   867  007A64  7C                 	db	124
   868  007A65  54                 	db	84
   869  007A66  54                 	db	84
   870  007A67  5C                 	db	92
   871  007A68  18                 	db	24
   872  007A69  00                 	db	0
   873  007A6A  00                 	db	0
   874  007A6B  48                 	db	72
   875  007A6C  7E                 	db	126
   876  007A6D  7F                 	db	127
   877  007A6E  49                 	db	73
   878  007A6F  03                 	db	3
   879  007A70  02                 	db	2
   880  007A71  00                 	db	0
   881  007A72  00                 	db	0
   882  007A73  98                 	db	152
   883  007A74  BC                 	db	188
   884  007A75  A4                 	db	164
   885  007A76  A4                 	db	164
   886  007A77  F8                 	db	248
   887  007A78  7C                 	db	124
   888  007A79  04                 	db	4
   889  007A7A  00                 	db	0
   890  007A7B  41                 	db	65
   891  007A7C  7F                 	db	127
   892  007A7D  7F                 	db	127
   893  007A7E  08                 	db	8
   894  007A7F  04                 	db	4
   895  007A80  7C                 	db	124
   896  007A81  78                 	db	120
   897  007A82  00                 	db	0
   898  007A83  00                 	db	0
   899  007A84  44                 	db	68
   900  007A85  7D                 	db	125
   901  007A86  7D                 	db	125
   902  007A87  40                 	db	64
   903  007A88  00                 	db	0
   904  007A89  00                 	db	0
   905  007A8A  00                 	db	0
   906  007A8B  60                 	db	96
   907  007A8C  E0                 	db	224
   908  007A8D  80                 	db	128
   909  007A8E  80                 	db	128
   910  007A8F  FD                 	db	253
   911  007A90  7D                 	db	125
   912  007A91  00                 	db	0
   913  007A92  00                 	db	0
   914  007A93  41                 	db	65
   915  007A94  7F                 	db	127
   916  007A95  7F                 	db	127
   917  007A96  10                 	db	16
   918  007A97  38                 	db	56
   919  007A98  6C                 	db	108
   920  007A99  44                 	db	68
   921  007A9A  00                 	db	0
   922  007A9B  00                 	db	0
   923  007A9C  41                 	db	65
   924  007A9D  7F                 	db	127
   925  007A9E  7F                 	db	127
   926  007A9F  40                 	db	64
   927  007AA0  00                 	db	0
   928  007AA1  00                 	db	0
   929  007AA2  00                 	db	0
   930  007AA3  7C                 	db	124
   931  007AA4  7C                 	db	124
   932  007AA5  18                 	db	24
   933  007AA6  38                 	db	56
   934  007AA7  1C                 	db	28
   935  007AA8  7C                 	db	124
   936  007AA9  78                 	db	120
   937  007AAA  00                 	db	0
   938  007AAB  7C                 	db	124
   939  007AAC  7C                 	db	124
   940  007AAD  04                 	db	4
   941  007AAE  04                 	db	4
   942  007AAF  7C                 	db	124
   943  007AB0  78                 	db	120
   944  007AB1  00                 	db	0
   945  007AB2  00                 	db	0
   946  007AB3  38                 	db	56
   947  007AB4  7C                 	db	124
   948  007AB5  44                 	db	68
   949  007AB6  44                 	db	68
   950  007AB7  7C                 	db	124
   951  007AB8  38                 	db	56
   952  007AB9  00                 	db	0
   953  007ABA  00                 	db	0
   954  007ABB  84                 	db	132
   955  007ABC  FC                 	db	252
   956  007ABD  F8                 	db	248
   957  007ABE  A4                 	db	164
   958  007ABF  24                 	db	36
   959  007AC0  3C                 	db	60
   960  007AC1  18                 	db	24
   961  007AC2  00                 	db	0
   962  007AC3  18                 	db	24
   963  007AC4  3C                 	db	60
   964  007AC5  24                 	db	36
   965  007AC6  A4                 	db	164
   966  007AC7  F8                 	db	248
   967  007AC8  FC                 	db	252
   968  007AC9  84                 	db	132
   969  007ACA  00                 	db	0
   970  007ACB  44                 	db	68
   971  007ACC  7C                 	db	124
   972  007ACD  78                 	db	120
   973  007ACE  4C                 	db	76
   974  007ACF  04                 	db	4
   975  007AD0  1C                 	db	28
   976  007AD1  18                 	db	24
   977  007AD2  00                 	db	0
   978  007AD3  48                 	db	72
   979  007AD4  5C                 	db	92
   980  007AD5  54                 	db	84
   981  007AD6  54                 	db	84
   982  007AD7  74                 	db	116
   983  007AD8  24                 	db	36
   984  007AD9  00                 	db	0
   985  007ADA  00                 	db	0
   986  007ADB  00                 	db	0
   987  007ADC  04                 	db	4
   988  007ADD  3E                 	db	62
   989  007ADE  7F                 	db	127
   990  007ADF  44                 	db	68
   991  007AE0  24                 	db	36
   992  007AE1  00                 	db	0
   993  007AE2  00                 	db	0
   994  007AE3  3C                 	db	60
   995  007AE4  7C                 	db	124
   996  007AE5  40                 	db	64
   997  007AE6  40                 	db	64
   998  007AE7  3C                 	db	60
   999  007AE8  7C                 	db	124
  1000  007AE9  40                 	db	64
  1001  007AEA  00                 	db	0
  1002  007AEB  1C                 	db	28
  1003  007AEC  3C                 	db	60
  1004  007AED  60                 	db	96
  1005  007AEE  60                 	db	96
  1006  007AEF  3C                 	db	60
  1007  007AF0  1C                 	db	28
  1008  007AF1  00                 	db	0
  1009  007AF2  00                 	db	0
  1010  007AF3  3C                 	db	60
  1011  007AF4  7C                 	db	124
  1012  007AF5  70                 	db	112
  1013  007AF6  38                 	db	56
  1014  007AF7  70                 	db	112
  1015  007AF8  7C                 	db	124
  1016  007AF9  3C                 	db	60
  1017  007AFA  00                 	db	0
  1018  007AFB  44                 	db	68
  1019  007AFC  6C                 	db	108
  1020  007AFD  38                 	db	56
  1021  007AFE  10                 	db	16
  1022  007AFF  38                 	db	56
  1023  007B00  6C                 	db	108
  1024  007B01  44                 	db	68
  1025  007B02  00                 	db	0
  1026  007B03  9C                 	db	156
  1027  007B04  BC                 	db	188
  1028  007B05  A0                 	db	160
  1029  007B06  A0                 	db	160
  1030  007B07  FC                 	db	252
  1031  007B08  7C                 	db	124
  1032  007B09  00                 	db	0
  1033  007B0A  00                 	db	0
  1034  007B0B  4C                 	db	76
  1035  007B0C  64                 	db	100
  1036  007B0D  74                 	db	116
  1037  007B0E  5C                 	db	92
  1038  007B0F  4C                 	db	76
  1039  007B10  64                 	db	100
  1040  007B11  00                 	db	0
  1041  007B12  00                 	db	0
  1042  007B13  08                 	db	8
  1043  007B14  08                 	db	8
  1044  007B15  3E                 	db	62
  1045  007B16  77                 	db	119
  1046  007B17  41                 	db	65
  1047  007B18  41                 	db	65
  1048  007B19  00                 	db	0
  1049  007B1A  00                 	db	0
  1050  007B1B  00                 	db	0
  1051  007B1C  00                 	db	0
  1052  007B1D  00                 	db	0
  1053  007B1E  77                 	db	119
  1054  007B1F  77                 	db	119
  1055  007B20  00                 	db	0
  1056  007B21  00                 	db	0
  1057  007B22  00                 	db	0
  1058  007B23  41                 	db	65
  1059  007B24  41                 	db	65
  1060  007B25  77                 	db	119
  1061  007B26  3E                 	db	62
  1062  007B27  08                 	db	8
  1063  007B28  08                 	db	8
  1064  007B29  00                 	db	0
  1065  007B2A  00                 	db	0
  1066  007B2B  02                 	db	2
  1067  007B2C  03                 	db	3
  1068  007B2D  01                 	db	1
  1069  007B2E  03                 	db	3
  1070  007B2F  02                 	db	2
  1071  007B30  03                 	db	3
  1072  007B31  01                 	db	1
  1073  007B32  00                 	db	0
  1074  007B33  70                 	db	112
  1075  007B34  78                 	db	120
  1076  007B35  4C                 	db	76
  1077  007B36  46                 	db	70
  1078  007B37  4C                 	db	76
  1079  007B38  78                 	db	120
  1080  007B39  70                 	db	112
  1081  007B3A  00                 	db	0
  1082  007B3B  0E                 	db	14
  1083  007B3C  9F                 	db	159
  1084  007B3D  91                 	db	145
  1085  007B3E  B1                 	db	177
  1086  007B3F  FB                 	db	251
  1087  007B40  4A                 	db	74
  1088  007B41  00                 	db	0
  1089  007B42  00                 	db	0
  1090  007B43  3A                 	db	58
  1091  007B44  7A                 	db	122
  1092  007B45  40                 	db	64
  1093  007B46  40                 	db	64
  1094  007B47  7A                 	db	122
  1095  007B48  7A                 	db	122
  1096  007B49  40                 	db	64
  1097  007B4A  00                 	db	0
  1098  007B4B  38                 	db	56
  1099  007B4C  7C                 	db	124
  1100  007B4D  54                 	db	84
  1101  007B4E  55                 	db	85
  1102  007B4F  5D                 	db	93
  1103  007B50  19                 	db	25
  1104  007B51  00                 	db	0
  1105  007B52  00                 	db	0
  1106  007B53  02                 	db	2
  1107  007B54  23                 	db	35
  1108  007B55  75                 	db	117
  1109  007B56  55                 	db	85
  1110  007B57  55                 	db	85
  1111  007B58  7D                 	db	125
  1112  007B59  7B                 	db	123
  1113  007B5A  42                 	db	66
  1114  007B5B  21                 	db	33
  1115  007B5C  75                 	db	117
  1116  007B5D  54                 	db	84
  1117  007B5E  54                 	db	84
  1118  007B5F  7D                 	db	125
  1119  007B60  79                 	db	121
  1120  007B61  40                 	db	64
  1121  007B62  00                 	db	0
  1122  007B63  21                 	db	33
  1123  007B64  75                 	db	117
  1124  007B65  55                 	db	85
  1125  007B66  54                 	db	84
  1126  007B67  7C                 	db	124
  1127  007B68  78                 	db	120
  1128  007B69  40                 	db	64
  1129  007B6A  00                 	db	0
  1130  007B6B  20                 	db	32
  1131  007B6C  74                 	db	116
  1132  007B6D  57                 	db	87
  1133  007B6E  57                 	db	87
  1134  007B6F  7C                 	db	124
  1135  007B70  78                 	db	120
  1136  007B71  40                 	db	64
  1137  007B72  00                 	db	0
  1138  007B73  18                 	db	24
  1139  007B74  3C                 	db	60
  1140  007B75  A4                 	db	164
  1141  007B76  A4                 	db	164
  1142  007B77  E4                 	db	228
  1143  007B78  40                 	db	64
  1144  007B79  00                 	db	0
  1145  007B7A  00                 	db	0
  1146  007B7B  02                 	db	2
  1147  007B7C  3B                 	db	59
  1148  007B7D  7D                 	db	125
  1149  007B7E  55                 	db	85
  1150  007B7F  55                 	db	85
  1151  007B80  5D                 	db	93
  1152  007B81  1B                 	db	27
  1153  007B82  02                 	db	2
  1154  007B83  39                 	db	57
  1155  007B84  7D                 	db	125
  1156  007B85  54                 	db	84
  1157  007B86  54                 	db	84
  1158  007B87  5D                 	db	93
  1159  007B88  19                 	db	25
  1160  007B89  00                 	db	0
  1161  007B8A  00                 	db	0
  1162  007B8B  39                 	db	57
  1163  007B8C  7D                 	db	125
  1164  007B8D  55                 	db	85
  1165  007B8E  54                 	db	84
  1166  007B8F  5C                 	db	92
  1167  007B90  18                 	db	24
  1168  007B91  00                 	db	0
  1169  007B92  00                 	db	0
  1170  007B93  01                 	db	1
  1171  007B94  45                 	db	69
  1172  007B95  7C                 	db	124
  1173  007B96  7C                 	db	124
  1174  007B97  41                 	db	65
  1175  007B98  01                 	db	1
  1176  007B99  00                 	db	0
  1177  007B9A  00                 	db	0
  1178  007B9B  02                 	db	2
  1179  007B9C  03                 	db	3
  1180  007B9D  45                 	db	69
  1181  007B9E  7D                 	db	125
  1182  007B9F  7D                 	db	125
  1183  007BA0  43                 	db	67
  1184  007BA1  02                 	db	2
  1185  007BA2  00                 	db	0
  1186  007BA3  01                 	db	1
  1187  007BA4  45                 	db	69
  1188  007BA5  7D                 	db	125
  1189  007BA6  7C                 	db	124
  1190  007BA7  40                 	db	64
  1191  007BA8  00                 	db	0
  1192  007BA9  00                 	db	0
  1193  007BAA  00                 	db	0
  1194  007BAB  79                 	db	121
  1195  007BAC  7D                 	db	125
  1196  007BAD  16                 	db	22
  1197  007BAE  12                 	db	18
  1198  007BAF  16                 	db	22
  1199  007BB0  7D                 	db	125
  1200  007BB1  79                 	db	121
  1201  007BB2  00                 	db	0
  1202  007BB3  70                 	db	112
  1203  007BB4  78                 	db	120
  1204  007BB5  2B                 	db	43
  1205  007BB6  2B                 	db	43
  1206  007BB7  78                 	db	120
  1207  007BB8  70                 	db	112
  1208  007BB9  00                 	db	0
  1209  007BBA  00                 	db	0
  1210  007BBB  44                 	db	68
  1211  007BBC  7C                 	db	124
  1212  007BBD  7C                 	db	124
  1213  007BBE  55                 	db	85
  1214  007BBF  55                 	db	85
  1215  007BC0  45                 	db	69
  1216  007BC1  00                 	db	0
  1217  007BC2  00                 	db	0
  1218  007BC3  20                 	db	32
  1219  007BC4  74                 	db	116
  1220  007BC5  54                 	db	84
  1221  007BC6  54                 	db	84
  1222  007BC7  7C                 	db	124
  1223  007BC8  7C                 	db	124
  1224  007BC9  54                 	db	84
  1225  007BCA  54                 	db	84
  1226  007BCB  7C                 	db	124
  1227  007BCC  7E                 	db	126
  1228  007BCD  0B                 	db	11
  1229  007BCE  09                 	db	9
  1230  007BCF  7F                 	db	127
  1231  007BD0  7F                 	db	127
  1232  007BD1  49                 	db	73
  1233  007BD2  00                 	db	0
  1234  007BD3  32                 	db	50
  1235  007BD4  7B                 	db	123
  1236  007BD5  49                 	db	73
  1237  007BD6  49                 	db	73
  1238  007BD7  7B                 	db	123
  1239  007BD8  32                 	db	50
  1240  007BD9  00                 	db	0
  1241  007BDA  00                 	db	0
  1242  007BDB  32                 	db	50
  1243  007BDC  7A                 	db	122
  1244  007BDD  48                 	db	72
  1245  007BDE  48                 	db	72
  1246  007BDF  7A                 	db	122
  1247  007BE0  32                 	db	50
  1248  007BE1  00                 	db	0
  1249  007BE2  00                 	db	0
  1250  007BE3  32                 	db	50
  1251  007BE4  7A                 	db	122
  1252  007BE5  4A                 	db	74
  1253  007BE6  48                 	db	72
  1254  007BE7  78                 	db	120
  1255  007BE8  30                 	db	48
  1256  007BE9  00                 	db	0
  1257  007BEA  00                 	db	0
  1258  007BEB  3A                 	db	58
  1259  007BEC  7B                 	db	123
  1260  007BED  41                 	db	65
  1261  007BEE  41                 	db	65
  1262  007BEF  7B                 	db	123
  1263  007BF0  7A                 	db	122
  1264  007BF1  40                 	db	64
  1265  007BF2  00                 	db	0
  1266  007BF3  3A                 	db	58
  1267  007BF4  7A                 	db	122
  1268  007BF5  42                 	db	66
  1269  007BF6  40                 	db	64
  1270  007BF7  78                 	db	120
  1271  007BF8  78                 	db	120
  1272  007BF9  40                 	db	64
  1273  007BFA  00                 	db	0
  1274  007BFB  9A                 	db	154
  1275  007BFC  BA                 	db	186
  1276  007BFD  A0                 	db	160
  1277  007BFE  A0                 	db	160
  1278  007BFF  FA                 	db	250
  1279  007C00  7A                 	db	122
  1280  007C01  00                 	db	0
  1281  007C02  00                 	db	0
  1282  007C03  01                 	db	1
  1283  007C04  19                 	db	25
  1284  007C05  3C                 	db	60
  1285  007C06  66                 	db	102
  1286  007C07  66                 	db	102
  1287  007C08  3C                 	db	60
  1288  007C09  19                 	db	25
  1289  007C0A  01                 	db	1
  1290  007C0B  3D                 	db	61
  1291  007C0C  7D                 	db	125
  1292  007C0D  40                 	db	64
  1293  007C0E  40                 	db	64
  1294  007C0F  7D                 	db	125
  1295  007C10  3D                 	db	61
  1296  007C11  00                 	db	0
  1297  007C12  00                 	db	0
  1298  007C13  18                 	db	24
  1299  007C14  3C                 	db	60
  1300  007C15  24                 	db	36
  1301  007C16  E7                 	db	231
  1302  007C17  E7                 	db	231
  1303  007C18  24                 	db	36
  1304  007C19  24                 	db	36
  1305  007C1A  00                 	db	0
  1306  007C1B  68                 	db	104
  1307  007C1C  7E                 	db	126
  1308  007C1D  7F                 	db	127
  1309  007C1E  49                 	db	73
  1310  007C1F  43                 	db	67
  1311  007C20  66                 	db	102
  1312  007C21  20                 	db	32
  1313  007C22  00                 	db	0
  1314  007C23  2B                 	db	43
  1315  007C24  2F                 	db	47
  1316  007C25  FC                 	db	252
  1317  007C26  FC                 	db	252
  1318  007C27  2F                 	db	47
  1319  007C28  2B                 	db	43
  1320  007C29  00                 	db	0
  1321  007C2A  00                 	db	0
  1322  007C2B  FF                 	db	255
  1323  007C2C  FF                 	db	255
  1324  007C2D  09                 	db	9
  1325  007C2E  09                 	db	9
  1326  007C2F  2F                 	db	47
  1327  007C30  F6                 	db	246
  1328  007C31  F8                 	db	248
  1329  007C32  A0                 	db	160
  1330  007C33  40                 	db	64
  1331  007C34  C0                 	db	192
  1332  007C35  88                 	db	136
  1333  007C36  FE                 	db	254
  1334  007C37  7F                 	db	127
  1335  007C38  09                 	db	9
  1336  007C39  03                 	db	3
  1337  007C3A  02                 	db	2
  1338  007C3B  20                 	db	32
  1339  007C3C  74                 	db	116
  1340  007C3D  54                 	db	84
  1341  007C3E  55                 	db	85
  1342  007C3F  7D                 	db	125
  1343  007C40  79                 	db	121
  1344  007C41  40                 	db	64
  1345  007C42  00                 	db	0
  1346  007C43  00                 	db	0
  1347  007C44  44                 	db	68
  1348  007C45  7D                 	db	125
  1349  007C46  7D                 	db	125
  1350  007C47  41                 	db	65
  1351  007C48  00                 	db	0
  1352  007C49  00                 	db	0
  1353  007C4A  00                 	db	0
  1354  007C4B  30                 	db	48
  1355  007C4C  78                 	db	120
  1356  007C4D  48                 	db	72
  1357  007C4E  4A                 	db	74
  1358  007C4F  7A                 	db	122
  1359  007C50  32                 	db	50
  1360  007C51  00                 	db	0
  1361  007C52  00                 	db	0
  1362  007C53  38                 	db	56
  1363  007C54  78                 	db	120
  1364  007C55  40                 	db	64
  1365  007C56  42                 	db	66
  1366  007C57  7A                 	db	122
  1367  007C58  7A                 	db	122
  1368  007C59  40                 	db	64
  1369  007C5A  00                 	db	0
  1370  007C5B  7A                 	db	122
  1371  007C5C  7A                 	db	122
  1372  007C5D  0A                 	db	10
  1373  007C5E  0A                 	db	10
  1374  007C5F  7A                 	db	122
  1375  007C60  70                 	db	112
  1376  007C61  00                 	db	0
  1377  007C62  00                 	db	0
  1378  007C63  7D                 	db	125
  1379  007C64  7D                 	db	125
  1380  007C65  19                 	db	25
  1381  007C66  31                 	db	49
  1382  007C67  7D                 	db	125
  1383  007C68  7D                 	db	125
  1384  007C69  00                 	db	0
  1385  007C6A  00                 	db	0
  1386  007C6B  00                 	db	0
  1387  007C6C  26                 	db	38
  1388  007C6D  2F                 	db	47
  1389  007C6E  29                 	db	41
  1390  007C6F  2F                 	db	47
  1391  007C70  2F                 	db	47
  1392  007C71  28                 	db	40
  1393  007C72  00                 	db	0
  1394  007C73  00                 	db	0
  1395  007C74  26                 	db	38
  1396  007C75  2F                 	db	47
  1397  007C76  29                 	db	41
  1398  007C77  2F                 	db	47
  1399  007C78  26                 	db	38
  1400  007C79  00                 	db	0
  1401  007C7A  00                 	db	0
  1402  007C7B  30                 	db	48
  1403  007C7C  78                 	db	120
  1404  007C7D  4D                 	db	77
  1405  007C7E  45                 	db	69
  1406  007C7F  60                 	db	96
  1407  007C80  20                 	db	32
  1408  007C81  00                 	db	0
  1409  007C82  00                 	db	0
  1410  007C83  38                 	db	56
  1411  007C84  38                 	db	56
  1412  007C85  08                 	db	8
  1413  007C86  08                 	db	8
  1414  007C87  08                 	db	8
  1415  007C88  08                 	db	8
  1416  007C89  00                 	db	0
  1417  007C8A  00                 	db	0
  1418  007C8B  08                 	db	8
  1419  007C8C  08                 	db	8
  1420  007C8D  08                 	db	8
  1421  007C8E  08                 	db	8
  1422  007C8F  38                 	db	56
  1423  007C90  38                 	db	56
  1424  007C91  00                 	db	0
  1425  007C92  00                 	db	0
  1426  007C93  4F                 	db	79
  1427  007C94  6F                 	db	111
  1428  007C95  30                 	db	48
  1429  007C96  18                 	db	24
  1430  007C97  CC                 	db	204
  1431  007C98  EE                 	db	238
  1432  007C99  BB                 	db	187
  1433  007C9A  91                 	db	145
  1434  007C9B  4F                 	db	79
  1435  007C9C  6F                 	db	111
  1436  007C9D  30                 	db	48
  1437  007C9E  18                 	db	24
  1438  007C9F  6C                 	db	108
  1439  007CA0  76                 	db	118
  1440  007CA1  FB                 	db	251
  1441  007CA2  F9                 	db	249
  1442  007CA3  00                 	db	0
  1443  007CA4  00                 	db	0
  1444  007CA5  00                 	db	0
  1445  007CA6  7B                 	db	123
  1446  007CA7  7B                 	db	123
  1447  007CA8  00                 	db	0
  1448  007CA9  00                 	db	0
  1449  007CAA  00                 	db	0
  1450  007CAB  08                 	db	8
  1451  007CAC  1C                 	db	28
  1452  007CAD  36                 	db	54
  1453  007CAE  22                 	db	34
  1454  007CAF  08                 	db	8
  1455  007CB0  1C                 	db	28
  1456  007CB1  36                 	db	54
  1457  007CB2  22                 	db	34
  1458  007CB3  22                 	db	34
  1459  007CB4  36                 	db	54
  1460  007CB5  1C                 	db	28
  1461  007CB6  08                 	db	8
  1462  007CB7  22                 	db	34
  1463  007CB8  36                 	db	54
  1464  007CB9  1C                 	db	28
  1465  007CBA  08                 	db	8
  1466  007CBB  AA                 	db	170
  1467  007CBC  00                 	db	0
  1468  007CBD  55                 	db	85
  1469  007CBE  00                 	db	0
  1470  007CBF  AA                 	db	170
  1471  007CC0  00                 	db	0
  1472  007CC1  55                 	db	85
  1473  007CC2  00                 	db	0
  1474  007CC3  AA                 	db	170
  1475  007CC4  55                 	db	85
  1476  007CC5  AA                 	db	170
  1477  007CC6  55                 	db	85
  1478  007CC7  AA                 	db	170
  1479  007CC8  55                 	db	85
  1480  007CC9  AA                 	db	170
  1481  007CCA  55                 	db	85
  1482  007CCB  DD                 	db	221
  1483  007CCC  FF                 	db	255
  1484  007CCD  AA                 	db	170
  1485  007CCE  77                 	db	119
  1486  007CCF  DD                 	db	221
  1487  007CD0  AA                 	db	170
  1488  007CD1  FF                 	db	255
  1489  007CD2  77                 	db	119
  1490  007CD3  00                 	db	0
  1491  007CD4  00                 	db	0
  1492  007CD5  00                 	db	0
  1493  007CD6  FF                 	db	255
  1494  007CD7  FF                 	db	255
  1495  007CD8  00                 	db	0
  1496  007CD9  00                 	db	0
  1497  007CDA  00                 	db	0
  1498  007CDB  10                 	db	16
  1499  007CDC  10                 	db	16
  1500  007CDD  10                 	db	16
  1501  007CDE  FF                 	db	255
  1502  007CDF  FF                 	db	255
  1503  007CE0  00                 	db	0
  1504  007CE1  00                 	db	0
  1505  007CE2  00                 	db	0
  1506  007CE3  14                 	db	20
  1507  007CE4  14                 	db	20
  1508  007CE5  14                 	db	20
  1509  007CE6  FF                 	db	255
  1510  007CE7  FF                 	db	255
  1511  007CE8  00                 	db	0
  1512  007CE9  00                 	db	0
  1513  007CEA  00                 	db	0
  1514  007CEB  10                 	db	16
  1515  007CEC  10                 	db	16
  1516  007CED  FF                 	db	255
  1517  007CEE  FF                 	db	255
  1518  007CEF  00                 	db	0
  1519  007CF0  FF                 	db	255
  1520  007CF1  FF                 	db	255
  1521  007CF2  00                 	db	0
  1522  007CF3  10                 	db	16
  1523  007CF4  10                 	db	16
  1524  007CF5  F0                 	db	240
  1525  007CF6  F0                 	db	240
  1526  007CF7  10                 	db	16
  1527  007CF8  F0                 	db	240
  1528  007CF9  F0                 	db	240
  1529  007CFA  00                 	db	0
  1530  007CFB  14                 	db	20
  1531  007CFC  14                 	db	20
  1532  007CFD  14                 	db	20
  1533  007CFE  FC                 	db	252
  1534  007CFF  FC                 	db	252
  1535  007D00  00                 	db	0
  1536  007D01  00                 	db	0
  1537  007D02  00                 	db	0
  1538  007D03  14                 	db	20
  1539  007D04  14                 	db	20
  1540  007D05  F7                 	db	247
  1541  007D06  F7                 	db	247
  1542  007D07  00                 	db	0
  1543  007D08  FF                 	db	255
  1544  007D09  FF                 	db	255
  1545  007D0A  00                 	db	0
  1546  007D0B  00                 	db	0
  1547  007D0C  00                 	db	0
  1548  007D0D  FF                 	db	255
  1549  007D0E  FF                 	db	255
  1550  007D0F  00                 	db	0
  1551  007D10  FF                 	db	255
  1552  007D11  FF                 	db	255
  1553  007D12  00                 	db	0
  1554  007D13  14                 	db	20
  1555  007D14  14                 	db	20
  1556  007D15  F4                 	db	244
  1557  007D16  F4                 	db	244
  1558  007D17  04                 	db	4
  1559  007D18  FC                 	db	252
  1560  007D19  FC                 	db	252
  1561  007D1A  00                 	db	0
  1562  007D1B  14                 	db	20
  1563  007D1C  14                 	db	20
  1564  007D1D  17                 	db	23
  1565  007D1E  17                 	db	23
  1566  007D1F  10                 	db	16
  1567  007D20  1F                 	db	31
  1568  007D21  1F                 	db	31
  1569  007D22  00                 	db	0
  1570  007D23  10                 	db	16
  1571  007D24  10                 	db	16
  1572  007D25  1F                 	db	31
  1573  007D26  1F                 	db	31
  1574  007D27  10                 	db	16
  1575  007D28  1F                 	db	31
  1576  007D29  1F                 	db	31
  1577  007D2A  00                 	db	0
  1578  007D2B  14                 	db	20
  1579  007D2C  14                 	db	20
  1580  007D2D  14                 	db	20
  1581  007D2E  1F                 	db	31
  1582  007D2F  1F                 	db	31
  1583  007D30  00                 	db	0
  1584  007D31  00                 	db	0
  1585  007D32  00                 	db	0
  1586  007D33  10                 	db	16
  1587  007D34  10                 	db	16
  1588  007D35  10                 	db	16
  1589  007D36  F0                 	db	240
  1590  007D37  F0                 	db	240
  1591  007D38  00                 	db	0
  1592  007D39  00                 	db	0
  1593  007D3A  00                 	db	0
  1594  007D3B  00                 	db	0
  1595  007D3C  00                 	db	0
  1596  007D3D  00                 	db	0
  1597  007D3E  1F                 	db	31
  1598  007D3F  1F                 	db	31
  1599  007D40  10                 	db	16
  1600  007D41  10                 	db	16
  1601  007D42  10                 	db	16
  1602  007D43  10                 	db	16
  1603  007D44  10                 	db	16
  1604  007D45  10                 	db	16
  1605  007D46  1F                 	db	31
  1606  007D47  1F                 	db	31
  1607  007D48  10                 	db	16
  1608  007D49  10                 	db	16
  1609  007D4A  10                 	db	16
  1610  007D4B  10                 	db	16
  1611  007D4C  10                 	db	16
  1612  007D4D  10                 	db	16
  1613  007D4E  F0                 	db	240
  1614  007D4F  F0                 	db	240
  1615  007D50  10                 	db	16
  1616  007D51  10                 	db	16
  1617  007D52  10                 	db	16
  1618  007D53  00                 	db	0
  1619  007D54  00                 	db	0
  1620  007D55  00                 	db	0
  1621  007D56  FF                 	db	255
  1622  007D57  FF                 	db	255
  1623  007D58  10                 	db	16
  1624  007D59  10                 	db	16
  1625  007D5A  10                 	db	16
  1626  007D5B  10                 	db	16
  1627  007D5C  10                 	db	16
  1628  007D5D  10                 	db	16
  1629  007D5E  10                 	db	16
  1630  007D5F  10                 	db	16
  1631  007D60  10                 	db	16
  1632  007D61  10                 	db	16
  1633  007D62  10                 	db	16
  1634  007D63  10                 	db	16
  1635  007D64  10                 	db	16
  1636  007D65  10                 	db	16
  1637  007D66  FF                 	db	255
  1638  007D67  FF                 	db	255
  1639  007D68  10                 	db	16
  1640  007D69  10                 	db	16
  1641  007D6A  10                 	db	16
  1642  007D6B  00                 	db	0
  1643  007D6C  00                 	db	0
  1644  007D6D  00                 	db	0
  1645  007D6E  FF                 	db	255
  1646  007D6F  FF                 	db	255
  1647  007D70  14                 	db	20
  1648  007D71  14                 	db	20
  1649  007D72  14                 	db	20
  1650  007D73  00                 	db	0
  1651  007D74  00                 	db	0
  1652  007D75  FF                 	db	255
  1653  007D76  FF                 	db	255
  1654  007D77  00                 	db	0
  1655  007D78  FF                 	db	255
  1656  007D79  FF                 	db	255
  1657  007D7A  10                 	db	16
  1658  007D7B  00                 	db	0
  1659  007D7C  00                 	db	0
  1660  007D7D  1F                 	db	31
  1661  007D7E  1F                 	db	31
  1662  007D7F  10                 	db	16
  1663  007D80  17                 	db	23
  1664  007D81  17                 	db	23
  1665  007D82  14                 	db	20
  1666  007D83  00                 	db	0
  1667  007D84  00                 	db	0
  1668  007D85  FC                 	db	252
  1669  007D86  FC                 	db	252
  1670  007D87  04                 	db	4
  1671  007D88  F4                 	db	244
  1672  007D89  F4                 	db	244
  1673  007D8A  14                 	db	20
  1674  007D8B  14                 	db	20
  1675  007D8C  14                 	db	20
  1676  007D8D  17                 	db	23
  1677  007D8E  17                 	db	23
  1678  007D8F  10                 	db	16
  1679  007D90  17                 	db	23
  1680  007D91  17                 	db	23
  1681  007D92  14                 	db	20
  1682  007D93  14                 	db	20
  1683  007D94  14                 	db	20
  1684  007D95  F4                 	db	244
  1685  007D96  F4                 	db	244
  1686  007D97  04                 	db	4
  1687  007D98  F4                 	db	244
  1688  007D99  F4                 	db	244
  1689  007D9A  14                 	db	20
  1690  007D9B  00                 	db	0
  1691  007D9C  00                 	db	0
  1692  007D9D  FF                 	db	255
  1693  007D9E  FF                 	db	255
  1694  007D9F  00                 	db	0
  1695  007DA0  F7                 	db	247
  1696  007DA1  F7                 	db	247
  1697  007DA2  14                 	db	20
  1698  007DA3  14                 	db	20
  1699  007DA4  14                 	db	20
  1700  007DA5  14                 	db	20
  1701  007DA6  14                 	db	20
  1702  007DA7  14                 	db	20
  1703  007DA8  14                 	db	20
  1704  007DA9  14                 	db	20
  1705  007DAA  14                 	db	20
  1706  007DAB  14                 	db	20
  1707  007DAC  14                 	db	20
  1708  007DAD  F7                 	db	247
  1709  007DAE  F7                 	db	247
  1710  007DAF  00                 	db	0
  1711  007DB0  F7                 	db	247
  1712  007DB1  F7                 	db	247
  1713  007DB2  14                 	db	20
  1714  007DB3  14                 	db	20
  1715  007DB4  14                 	db	20
  1716  007DB5  14                 	db	20
  1717  007DB6  17                 	db	23
  1718  007DB7  17                 	db	23
  1719  007DB8  14                 	db	20
  1720  007DB9  14                 	db	20
  1721  007DBA  14                 	db	20
  1722  007DBB  10                 	db	16
  1723  007DBC  10                 	db	16
  1724  007DBD  1F                 	db	31
  1725  007DBE  1F                 	db	31
  1726  007DBF  10                 	db	16
  1727  007DC0  1F                 	db	31
  1728  007DC1  1F                 	db	31
  1729  007DC2  10                 	db	16
  1730  007DC3  14                 	db	20
  1731  007DC4  14                 	db	20
  1732  007DC5  14                 	db	20
  1733  007DC6  F4                 	db	244
  1734  007DC7  F4                 	db	244
  1735  007DC8  14                 	db	20
  1736  007DC9  14                 	db	20
  1737  007DCA  14                 	db	20
  1738  007DCB  10                 	db	16
  1739  007DCC  10                 	db	16
  1740  007DCD  F0                 	db	240
  1741  007DCE  F0                 	db	240
  1742  007DCF  10                 	db	16
  1743  007DD0  F0                 	db	240
  1744  007DD1  F0                 	db	240
  1745  007DD2  10                 	db	16
  1746  007DD3  00                 	db	0
  1747  007DD4  00                 	db	0
  1748  007DD5  1F                 	db	31
  1749  007DD6  1F                 	db	31
  1750  007DD7  10                 	db	16
  1751  007DD8  1F                 	db	31
  1752  007DD9  1F                 	db	31
  1753  007DDA  10                 	db	16
  1754  007DDB  00                 	db	0
  1755  007DDC  00                 	db	0
  1756  007DDD  00                 	db	0
  1757  007DDE  1F                 	db	31
  1758  007DDF  1F                 	db	31
  1759  007DE0  14                 	db	20
  1760  007DE1  14                 	db	20
  1761  007DE2  14                 	db	20
  1762  007DE3  00                 	db	0
  1763  007DE4  00                 	db	0
  1764  007DE5  00                 	db	0
  1765  007DE6  FC                 	db	252
  1766  007DE7  FC                 	db	252
  1767  007DE8  14                 	db	20
  1768  007DE9  14                 	db	20
  1769  007DEA  14                 	db	20
  1770  007DEB  00                 	db	0
  1771  007DEC  00                 	db	0
  1772  007DED  F0                 	db	240
  1773  007DEE  F0                 	db	240
  1774  007DEF  10                 	db	16
  1775  007DF0  F0                 	db	240
  1776  007DF1  F0                 	db	240
  1777  007DF2  10                 	db	16
  1778  007DF3  10                 	db	16
  1779  007DF4  10                 	db	16
  1780  007DF5  FF                 	db	255
  1781  007DF6  FF                 	db	255
  1782  007DF7  10                 	db	16
  1783  007DF8  FF                 	db	255
  1784  007DF9  FF                 	db	255
  1785  007DFA  10                 	db	16
  1786  007DFB  14                 	db	20
  1787  007DFC  14                 	db	20
  1788  007DFD  14                 	db	20
  1789  007DFE  FF                 	db	255
  1790  007DFF  FF                 	db	255
  1791  007E00  14                 	db	20
  1792  007E01  14                 	db	20
  1793  007E02  14                 	db	20
  1794  007E03  10                 	db	16
  1795  007E04  10                 	db	16
  1796  007E05  10                 	db	16
  1797  007E06  1F                 	db	31
  1798  007E07  1F                 	db	31
  1799  007E08  00                 	db	0
  1800  007E09  00                 	db	0
  1801  007E0A  00                 	db	0
  1802  007E0B  00                 	db	0
  1803  007E0C  00                 	db	0
  1804  007E0D  00                 	db	0
  1805  007E0E  F0                 	db	240
  1806  007E0F  F0                 	db	240
  1807  007E10  10                 	db	16
  1808  007E11  10                 	db	16
  1809  007E12  10                 	db	16
  1810  007E13  FF                 	db	255
  1811  007E14  FF                 	db	255
  1812  007E15  FF                 	db	255
  1813  007E16  FF                 	db	255
  1814  007E17  FF                 	db	255
  1815  007E18  FF                 	db	255
  1816  007E19  FF                 	db	255
  1817  007E1A  FF                 	db	255
  1818  007E1B  F0                 	db	240
  1819  007E1C  F0                 	db	240
  1820  007E1D  F0                 	db	240
  1821  007E1E  F0                 	db	240
  1822  007E1F  F0                 	db	240
  1823  007E20  F0                 	db	240
  1824  007E21  F0                 	db	240
  1825  007E22  F0                 	db	240
  1826  007E23  FF                 	db	255
  1827  007E24  FF                 	db	255
  1828  007E25  FF                 	db	255
  1829  007E26  FF                 	db	255
  1830  007E27  00                 	db	0
  1831  007E28  00                 	db	0
  1832  007E29  00                 	db	0
  1833  007E2A  00                 	db	0
  1834  007E2B  00                 	db	0
  1835  007E2C  00                 	db	0
  1836  007E2D  00                 	db	0
  1837  007E2E  00                 	db	0
  1838  007E2F  FF                 	db	255
  1839  007E30  FF                 	db	255
  1840  007E31  FF                 	db	255
  1841  007E32  FF                 	db	255
  1842  007E33  0F                 	db	15
  1843  007E34  0F                 	db	15
  1844  007E35  0F                 	db	15
  1845  007E36  0F                 	db	15
  1846  007E37  0F                 	db	15
  1847  007E38  0F                 	db	15
  1848  007E39  0F                 	db	15
  1849  007E3A  0F                 	db	15
  1850  007E3B  38                 	db	56
  1851  007E3C  7C                 	db	124
  1852  007E3D  44                 	db	68
  1853  007E3E  6C                 	db	108
  1854  007E3F  38                 	db	56
  1855  007E40  6C                 	db	108
  1856  007E41  44                 	db	68
  1857  007E42  00                 	db	0
  1858  007E43  FC                 	db	252
  1859  007E44  FE                 	db	254
  1860  007E45  2A                 	db	42
  1861  007E46  2A                 	db	42
  1862  007E47  3E                 	db	62
  1863  007E48  14                 	db	20
  1864  007E49  00                 	db	0
  1865  007E4A  00                 	db	0
  1866  007E4B  7E                 	db	126
  1867  007E4C  7E                 	db	126
  1868  007E4D  02                 	db	2
  1869  007E4E  02                 	db	2
  1870  007E4F  06                 	db	6
  1871  007E50  06                 	db	6
  1872  007E51  00                 	db	0
  1873  007E52  00                 	db	0
  1874  007E53  02                 	db	2
  1875  007E54  7E                 	db	126
  1876  007E55  7E                 	db	126
  1877  007E56  02                 	db	2
  1878  007E57  7E                 	db	126
  1879  007E58  7E                 	db	126
  1880  007E59  02                 	db	2
  1881  007E5A  00                 	db	0
  1882  007E5B  63                 	db	99
  1883  007E5C  77                 	db	119
  1884  007E5D  5D                 	db	93
  1885  007E5E  49                 	db	73
  1886  007E5F  63                 	db	99
  1887  007E60  63                 	db	99
  1888  007E61  00                 	db	0
  1889  007E62  00                 	db	0
  1890  007E63  38                 	db	56
  1891  007E64  7C                 	db	124
  1892  007E65  44                 	db	68
  1893  007E66  7C                 	db	124
  1894  007E67  3C                 	db	60
  1895  007E68  04                 	db	4
  1896  007E69  04                 	db	4
  1897  007E6A  00                 	db	0
  1898  007E6B  80                 	db	128
  1899  007E6C  FE                 	db	254
  1900  007E6D  7E                 	db	126
  1901  007E6E  20                 	db	32
  1902  007E6F  20                 	db	32
  1903  007E70  3E                 	db	62
  1904  007E71  1E                 	db	30
  1905  007E72  00                 	db	0
  1906  007E73  04                 	db	4
  1907  007E74  06                 	db	6
  1908  007E75  02                 	db	2
  1909  007E76  7E                 	db	126
  1910  007E77  7C                 	db	124
  1911  007E78  06                 	db	6
  1912  007E79  02                 	db	2
  1913  007E7A  00                 	db	0
  1914  007E7B  99                 	db	153
  1915  007E7C  BD                 	db	189
  1916  007E7D  E7                 	db	231
  1917  007E7E  E7                 	db	231
  1918  007E7F  BD                 	db	189
  1919  007E80  99                 	db	153
  1920  007E81  00                 	db	0
  1921  007E82  00                 	db	0
  1922  007E83  1C                 	db	28
  1923  007E84  3E                 	db	62
  1924  007E85  6B                 	db	107
  1925  007E86  49                 	db	73
  1926  007E87  6B                 	db	107
  1927  007E88  3E                 	db	62
  1928  007E89  1C                 	db	28
  1929  007E8A  00                 	db	0
  1930  007E8B  4C                 	db	76
  1931  007E8C  7E                 	db	126
  1932  007E8D  73                 	db	115
  1933  007E8E  01                 	db	1
  1934  007E8F  73                 	db	115
  1935  007E90  7E                 	db	126
  1936  007E91  4C                 	db	76
  1937  007E92  00                 	db	0
  1938  007E93  30                 	db	48
  1939  007E94  78                 	db	120
  1940  007E95  4A                 	db	74
  1941  007E96  4F                 	db	79
  1942  007E97  7D                 	db	125
  1943  007E98  39                 	db	57
  1944  007E99  00                 	db	0
  1945  007E9A  00                 	db	0
  1946  007E9B  18                 	db	24
  1947  007E9C  3C                 	db	60
  1948  007E9D  24                 	db	36
  1949  007E9E  3C                 	db	60
  1950  007E9F  3C                 	db	60
  1951  007EA0  24                 	db	36
  1952  007EA1  3C                 	db	60
  1953  007EA2  18                 	db	24
  1954  007EA3  98                 	db	152
  1955  007EA4  FC                 	db	252
  1956  007EA5  64                 	db	100
  1957  007EA6  3C                 	db	60
  1958  007EA7  3E                 	db	62
  1959  007EA8  27                 	db	39
  1960  007EA9  3D                 	db	61
  1961  007EAA  18                 	db	24
  1962  007EAB  00                 	db	0
  1963  007EAC  00                 	db	0
  1964  007EAD  00                 	db	0
  1965  007EAE  00                 	db	0
  1966  007EAF  00                 	db	0
  1967  007EB0  00                 	db	0
  1968  007EB1  00                 	db	0
  1969  007EB2  00                 	db	0
  1970  007EB3  00                 	db	0
  1971  007EB4  00                 	db	0
  1972  007EB5  00                 	db	0
  1973  007EB6  00                 	db	0
  1974  007EB7  00                 	db	0
  1975  007EB8  00                 	db	0
  1976  007EB9  00                 	db	0
  1977  007EBA  00                 	db	0
  1978  007EBB  00                 	db	0
  1979  007EBC  00                 	db	0
  1980  007EBD  00                 	db	0
  1981  007EBE  00                 	db	0
  1982  007EBF  00                 	db	0
  1983  007EC0  00                 	db	0
  1984  007EC1  00                 	db	0
  1985  007EC2  00                 	db	0
  1986  007EC3  00                 	db	0
  1987  007EC4  00                 	db	0
  1988  007EC5  00                 	db	0
  1989  007EC6  00                 	db	0
  1990  007EC7  00                 	db	0
  1991  007EC8  00                 	db	0
  1992  007EC9  00                 	db	0
  1993  007ECA  00                 	db	0
  1994  007ECB  00                 	db	0
  1995  007ECC  00                 	db	0
  1996  007ECD  00                 	db	0
  1997  007ECE  00                 	db	0
  1998  007ECF  00                 	db	0
  1999  007ED0  00                 	db	0
  2000  007ED1  00                 	db	0
  2001  007ED2  00                 	db	0
  2002  007ED3  00                 	db	0
  2003  007ED4  00                 	db	0
  2004  007ED5  00                 	db	0
  2005  007ED6  00                 	db	0
  2006  007ED7  00                 	db	0
  2007  007ED8  00                 	db	0
  2008  007ED9  00                 	db	0
  2009  007EDA  00                 	db	0
  2010  007EDB  00                 	db	0
  2011  007EDC  00                 	db	0
  2012  007EDD  00                 	db	0
  2013  007EDE  00                 	db	0
  2014  007EDF  00                 	db	0
  2015  007EE0  00                 	db	0
  2016  007EE1  00                 	db	0
  2017  007EE2  00                 	db	0
  2018  007EE3  00                 	db	0
  2019  007EE4  00                 	db	0
  2020  007EE5  00                 	db	0
  2021  007EE6  00                 	db	0
  2022  007EE7  00                 	db	0
  2023  007EE8  00                 	db	0
  2024  007EE9  00                 	db	0
  2025  007EEA  00                 	db	0
  2026  007EEB  00                 	db	0
  2027  007EEC  00                 	db	0
  2028  007EED  00                 	db	0
  2029  007EEE  00                 	db	0
  2030  007EEF  00                 	db	0
  2031  007EF0  00                 	db	0
  2032  007EF1  00                 	db	0
  2033  007EF2  00                 	db	0
  2034  007EF3  00                 	db	0
  2035  007EF4  00                 	db	0
  2036  007EF5  00                 	db	0
  2037  007EF6  00                 	db	0
  2038  007EF7  00                 	db	0
  2039  007EF8  00                 	db	0
  2040  007EF9  00                 	db	0
  2041  007EFA  00                 	db	0
  2042  007EFB  00                 	db	0
  2043  007EFC  00                 	db	0
  2044  007EFD  00                 	db	0
  2045  007EFE  00                 	db	0
  2046  007EFF  00                 	db	0
  2047  007F00  00                 	db	0
  2048  007F01  00                 	db	0
  2049  007F02  00                 	db	0
  2050  007F03  00                 	db	0
  2051  007F04  00                 	db	0
  2052  007F05  00                 	db	0
  2053  007F06  00                 	db	0
  2054  007F07  00                 	db	0
  2055  007F08  00                 	db	0
  2056  007F09  00                 	db	0
  2057  007F0A  00                 	db	0
  2058  007F0B  00                 	db	0
  2059  007F0C  00                 	db	0
  2060  007F0D  00                 	db	0
  2061  007F0E  00                 	db	0
  2062  007F0F  00                 	db	0
  2063  007F10  00                 	db	0
  2064  007F11  00                 	db	0
  2065  007F12  00                 	db	0
  2066  007F13  00                 	db	0
  2067  007F14  00                 	db	0
  2068  007F15  00                 	db	0
  2069  007F16  00                 	db	0
  2070  007F17  00                 	db	0
  2071  007F18  00                 	db	0
  2072  007F19  00                 	db	0
  2073  007F1A  00                 	db	0
  2074  007F1B  00                 	db	0
  2075  007F1C  00                 	db	0
  2076  007F1D  00                 	db	0
  2077  007F1E  00                 	db	0
  2078  007F1F  00                 	db	0
  2079  007F20  00                 	db	0
  2080  007F21  00                 	db	0
  2081  007F22  00                 	db	0
  2082  007F23  00                 	db	0
  2083  007F24  00                 	db	0
  2084  007F25  00                 	db	0
  2085  007F26  00                 	db	0
  2086  007F27  00                 	db	0
  2087  007F28  00                 	db	0
  2088  007F29  00                 	db	0
  2089  007F2A  00                 	db	0
  2090  007F2B  00                 	db	0
  2091  007F2C  00                 	db	0
  2092  007F2D  00                 	db	0
  2093  007F2E  00                 	db	0
  2094  007F2F  00                 	db	0
  2095  007F30  00                 	db	0
  2096  007F31  00                 	db	0
  2097  007F32  00                 	db	0
  2098  007F33  00                 	db	0
  2099  007F34  00                 	db	0
  2100  007F35  00                 	db	0
  2101  007F36  00                 	db	0
  2102  007F37  00                 	db	0
  2103  007F38  00                 	db	0
  2104  007F39  00                 	db	0
  2105  007F3A  00                 	db	0
  2106  007F3B                     __end_of_Font8x8:
  2107                           	opt stack 0
  2108  007F3B                     _Font3x6:
  2109                           	opt stack 0
  2110  007F3B  00                 	db	0
  2111  007F3C  00                 	db	0
  2112  007F3D  00                 	db	0
  2113  007F3E  00                 	db	0
  2114  007F3F  5C                 	db	92
  2115  007F40  00                 	db	0
  2116  007F41  0C                 	db	12
  2117  007F42  00                 	db	0
  2118  007F43  0C                 	db	12
  2119  007F44  7C                 	db	124
  2120  007F45  28                 	db	40
  2121  007F46  7C                 	db	124
  2122  007F47  7C                 	db	124
  2123  007F48  44                 	db	68
  2124  007F49  7C                 	db	124
  2125  007F4A  24                 	db	36
  2126  007F4B  10                 	db	16
  2127  007F4C  48                 	db	72
  2128  007F4D  28                 	db	40
  2129  007F4E  54                 	db	84
  2130  007F4F  08                 	db	8
  2131  007F50  00                 	db	0
  2132  007F51  0C                 	db	12
  2133  007F52  00                 	db	0
  2134  007F53  38                 	db	56
  2135  007F54  44                 	db	68
  2136  007F55  00                 	db	0
  2137  007F56  44                 	db	68
  2138  007F57  38                 	db	56
  2139  007F58  00                 	db	0
  2140  007F59  20                 	db	32
  2141  007F5A  10                 	db	16
  2142  007F5B  08                 	db	8
  2143  007F5C  10                 	db	16
  2144  007F5D  38                 	db	56
  2145  007F5E  10                 	db	16
  2146  007F5F  80                 	db	128
  2147  007F60  40                 	db	64
  2148  007F61  00                 	db	0
  2149  007F62  10                 	db	16
  2150  007F63  10                 	db	16
  2151  007F64  10                 	db	16
  2152  007F65  00                 	db	0
  2153  007F66  40                 	db	64
  2154  007F67  00                 	db	0
  2155  007F68  20                 	db	32
  2156  007F69  10                 	db	16
  2157  007F6A  08                 	db	8
  2158  007F6B  38                 	db	56
  2159  007F6C  44                 	db	68
  2160  007F6D  38                 	db	56
  2161  007F6E  00                 	db	0
  2162  007F6F  7C                 	db	124
  2163  007F70  00                 	db	0
  2164  007F71  64                 	db	100
  2165  007F72  54                 	db	84
  2166  007F73  48                 	db	72
  2167  007F74  44                 	db	68
  2168  007F75  54                 	db	84
  2169  007F76  28                 	db	40
  2170  007F77  1C                 	db	28
  2171  007F78  10                 	db	16
  2172  007F79  7C                 	db	124
  2173  007F7A  4C                 	db	76
  2174  007F7B  54                 	db	84
  2175  007F7C  24                 	db	36
  2176  007F7D  38                 	db	56
  2177  007F7E  54                 	db	84
  2178  007F7F  20                 	db	32
  2179  007F80  04                 	db	4
  2180  007F81  74                 	db	116
  2181  007F82  0C                 	db	12
  2182  007F83  28                 	db	40
  2183  007F84  54                 	db	84
  2184  007F85  28                 	db	40
  2185  007F86  08                 	db	8
  2186  007F87  54                 	db	84
  2187  007F88  38                 	db	56
  2188  007F89  00                 	db	0
  2189  007F8A  50                 	db	80
  2190  007F8B  00                 	db	0
  2191  007F8C  80                 	db	128
  2192  007F8D  50                 	db	80
  2193  007F8E  00                 	db	0
  2194  007F8F  10                 	db	16
  2195  007F90  28                 	db	40
  2196  007F91  44                 	db	68
  2197  007F92  28                 	db	40
  2198  007F93  28                 	db	40
  2199  007F94  28                 	db	40
  2200  007F95  44                 	db	68
  2201  007F96  28                 	db	40
  2202  007F97  10                 	db	16
  2203  007F98  04                 	db	4
  2204  007F99  54                 	db	84
  2205  007F9A  08                 	db	8
  2206  007F9B  38                 	db	56
  2207  007F9C  4C                 	db	76
  2208  007F9D  5C                 	db	92
  2209  007F9E  78                 	db	120
  2210  007F9F  14                 	db	20
  2211  007FA0  78                 	db	120
  2212  007FA1  7C                 	db	124
  2213  007FA2  54                 	db	84
  2214  007FA3  28                 	db	40
  2215  007FA4  38                 	db	56
  2216  007FA5  44                 	db	68
  2217  007FA6  44                 	db	68
  2218  007FA7  7C                 	db	124
  2219  007FA8  44                 	db	68
  2220  007FA9  38                 	db	56
  2221  007FAA  7C                 	db	124
  2222  007FAB  54                 	db	84
  2223  007FAC  44                 	db	68
  2224  007FAD  7C                 	db	124
  2225  007FAE  14                 	db	20
  2226  007FAF  04                 	db	4
  2227  007FB0  38                 	db	56
  2228  007FB1  44                 	db	68
  2229  007FB2  34                 	db	52
  2230  007FB3  7C                 	db	124
  2231  007FB4  10                 	db	16
  2232  007FB5  7C                 	db	124
  2233  007FB6  00                 	db	0
  2234  007FB7  7C                 	db	124
  2235  007FB8  00                 	db	0
  2236  007FB9  20                 	db	32
  2237  007FBA  40                 	db	64
  2238  007FBB  3C                 	db	60
  2239  007FBC  7C                 	db	124
  2240  007FBD  10                 	db	16
  2241  007FBE  6C                 	db	108
  2242  007FBF  7C                 	db	124
  2243  007FC0  40                 	db	64
  2244  007FC1  40                 	db	64
  2245  007FC2  7C                 	db	124
  2246  007FC3  08                 	db	8
  2247  007FC4  7C                 	db	124
  2248  007FC5  7C                 	db	124
  2249  007FC6  04                 	db	4
  2250  007FC7  7C                 	db	124
  2251  007FC8  7C                 	db	124
  2252  007FC9  44                 	db	68
  2253  007FCA  7C                 	db	124
  2254  007FCB  7C                 	db	124
  2255  007FCC  14                 	db	20
  2256  007FCD  08                 	db	8
  2257  007FCE  38                 	db	56
  2258  007FCF  44                 	db	68
  2259  007FD0  78                 	db	120
  2260  007FD1  7C                 	db	124
  2261  007FD2  14                 	db	20
  2262  007FD3  68                 	db	104
  2263  007FD4  48                 	db	72
  2264  007FD5  54                 	db	84
  2265  007FD6  24                 	db	36
  2266  007FD7  04                 	db	4
  2267  007FD8  7C                 	db	124
  2268  007FD9  04                 	db	4
  2269  007FDA  7C                 	db	124
  2270  007FDB  40                 	db	64
  2271  007FDC  7C                 	db	124
  2272  007FDD  3C                 	db	60
  2273  007FDE  40                 	db	64
  2274  007FDF  3C                 	db	60
  2275  007FE0  7C                 	db	124
  2276  007FE1  20                 	db	32
  2277  007FE2  7C                 	db	124
  2278  007FE3  6C                 	db	108
  2279  007FE4  10                 	db	16
  2280  007FE5  6C                 	db	108
  2281  007FE6  1C                 	db	28
  2282  007FE7  60                 	db	96
  2283  007FE8  1C                 	db	28
  2284  007FE9  64                 	db	100
  2285  007FEA  54                 	db	84
  2286  007FEB  4C                 	db	76
  2287  007FEC  7C                 	db	124
  2288  007FED  44                 	db	68
  2289  007FEE  00                 	db	0
  2290  007FEF  08                 	db	8
  2291  007FF0  10                 	db	16
  2292  007FF1  20                 	db	32
  2293  007FF2  44                 	db	68
  2294  007FF3  7C                 	db	124
  2295  007FF4  00                 	db	0
  2296  007FF5  08                 	db	8
  2297  007FF6  04                 	db	4
  2298  007FF7  08                 	db	8
  2299  007FF8  80                 	db	128
  2300  007FF9  80                 	db	128
  2301  007FFA  80                 	db	128
  2302  007FFB  04                 	db	4
  2303  007FFC  08                 	db	8
  2304  007FFD  00                 	db	0
  2305  007FFE                     __end_of_Font3x6:
  2306                           	opt stack 0
  2307  0000                     _INTCONbits	set	4082
  2308  0000                     _PIE1bits	set	3997
  2309  0000                     _ADCON2bits	set	4032
  2310  0000                     _ADCON0	set	4034
  2311  0000                     _PIR1bits	set	3998
  2312  0000                     _LATD	set	3980
  2313  0000                     _LATBbits	set	3978
  2314  0000                     _PORTD	set	3971
  2315  0000                     _TRISD	set	3989
  2316  0000                     _ADCON1	set	4033
  2317  0000                     _PORTA	set	3968
  2318  0000                     _TRISA	set	3986
  2319  0000                     _PORTEbits	set	3972
  2320  0000                     _ADRESL	set	4035
  2321  0000                     _PORTB	set	3969
  2322  0000                     _ADRESH	set	4036
  2323  0000                     _PORTC	set	3970
  2324  0000                     _ADCON0bits	set	4034
  2325  0000                     _TRISC	set	3988
  2326  0000                     _TRISB	set	3987
  2327                           
  2328                           ; #config settings
  2329  007FFE  00                 	db	0	; dummy byte at the end
  2330  0000                     
  2331                           	psect	cinit
  2332  0000E6                     __pcinit:
  2333                           	opt stack 0
  2334  0000E6                     start_initialization:
  2335                           	opt stack 0
  2336  0000E6                     __initialization:
  2337                           	opt stack 0
  2338                           
  2339                           ; Clear objects allocated to COMRAM (2 bytes)
  2340  0000E6  6A14               	clrf	(__pbssCOMRAM+1)& (0+255),c
  2341  0000E8  6A13               	clrf	__pbssCOMRAM& (0+255),c
  2342  0000EA                     end_of_initialization:
  2343                           	opt stack 0
  2344  0000EA                     __end_of__initialization:
  2345                           	opt stack 0
  2346  0000EA  9015               	bcf	int$flags,0,c	;clear compiler interrupt flag (level 1)
  2347  0000EC  9215               	bcf	int$flags,1,c	;clear compiler interrupt flag (level 2)
  2348  0000EE  0E00               	movlw	low (__Lmediumconst shr (0+16))
  2349  0000F0  6EF8               	movwf	tblptru,c
  2350  0000F2  0100               	movlb	0
  2351  0000F4  EF65  F000         	goto	_main	;jump to C main() function
  2352                           tblptru	equ	0xFF8
  2353                           
  2354                           	psect	bssCOMRAM
  2355  000013                     __pbssCOMRAM:
  2356                           	opt stack 0
  2357  000013                     _y:
  2358                           	opt stack 0
  2359  000013                     	ds	1
  2360  000014                     _x:
  2361                           	opt stack 0
  2362  000014                     	ds	1
  2363                           tblptru	equ	0xFF8
  2364                           
  2365                           	psect	cstackCOMRAM
  2366  000001                     __pcstackCOMRAM:
  2367                           	opt stack 0
  2368  000001                     ??_ISR:
  2369                           
  2370                           ; 1 bytes @ 0x0
  2371  000001                     	ds	18
  2372  000013                     tblptru	equ	0xFF8
  2373                           
  2374                           ; 1 bytes @ 0x12
  2375 ;;
  2376 ;;Main: autosize = 0, tempsize = 0, incstack = 0, save=0
  2377 ;;
  2378 ;; *************** function _main *****************
  2379 ;; Defined at:
  2380 ;;		line 50 in file "main.c"
  2381 ;; Parameters:    Size  Location     Type
  2382 ;;		None
  2383 ;; Auto vars:     Size  Location     Type
  2384 ;;		None
  2385 ;; Return value:  Size  Location     Type
  2386 ;;                  1    wreg      void 
  2387 ;; Registers used:
  2388 ;;		wreg, status,2, cstack
  2389 ;; Tracked objects:
  2390 ;;		On entry : 0/0
  2391 ;;		On exit  : 0/0
  2392 ;;		Unchanged: 0/0
  2393 ;; Data sizes:     COMRAM   BANK0   BANK1   BANK2   BANK3   BANK4   BANK5   BANK6   BANK7
  2394 ;;      Params:         0       0       0       0       0       0       0       0       0
  2395 ;;      Locals:         0       0       0       0       0       0       0       0       0
  2396 ;;      Temps:          0       0       0       0       0       0       0       0       0
  2397 ;;      Totals:         0       0       0       0       0       0       0       0       0
  2398 ;;Total ram usage:        0 bytes
  2399 ;; Hardware stack levels required when called:    2
  2400 ;; This function calls:
  2401 ;;		_setupADCR0
  2402 ;; This function is called by:
  2403 ;;		Startup code after reset
  2404 ;; This function uses a non-reentrant model
  2405 ;;
  2406                           
  2407                           	psect	text0
  2408  0000CA                     __ptext0:
  2409                           	opt stack 0
  2410  0000CA                     _main:
  2411                           	opt stack 29
  2412                           
  2413                           ;main.c: 52: setupADCR0();
  2414                           
  2415                           ;incstack = 0
  2416  0000CA  EC56  F000         	call	_setupADCR0	;wreg free
  2417                           
  2418                           ;main.c: 53: TRISB = 0;
  2419  0000CE  0E00               	movlw	0
  2420  0000D0  6E93               	movwf	3987,c	;volatile
  2421                           
  2422                           ;main.c: 54: TRISC = 0;
  2423  0000D2  0E00               	movlw	0
  2424  0000D4  6E94               	movwf	3988,c	;volatile
  2425  0000D6                     
  2426                           ;main.c: 57: ADCON0bits.GO=1;
  2427  0000D6  82C2               	bsf	4034,1,c	;volatile
  2428  0000D8  B2C2               	btfsc	4034,1,c	;volatile
  2429  0000DA  D7FE               	goto	l23
  2430                           
  2431                           ;main.c: 59: PORTC = ADRESH;
  2432  0000DC  CFC4 FF82          	movff	4036,3970	;volatile
  2433                           
  2434                           ;main.c: 60: PORTB = ADRESL;
  2435  0000E0  CFC3 FF81          	movff	4035,3969	;volatile
  2436  0000E4  D7F8               	goto	l21
  2437  0000E6                     __end_of_main:
  2438                           	opt stack 0
  2439                           tblptru	equ	0xFF8
  2440                           
  2441 ;; *************** function _setupADCR0 *****************
  2442 ;; Defined at:
  2443 ;;		line 22 in file "glcd_library/TS.c"
  2444 ;; Parameters:    Size  Location     Type
  2445 ;;		None
  2446 ;; Auto vars:     Size  Location     Type
  2447 ;;		None
  2448 ;; Return value:  Size  Location     Type
  2449 ;;                  1    wreg      void 
  2450 ;; Registers used:
  2451 ;;		wreg, status,2
  2452 ;; Tracked objects:
  2453 ;;		On entry : 0/0
  2454 ;;		On exit  : 0/0
  2455 ;;		Unchanged: 0/0
  2456 ;; Data sizes:     COMRAM   BANK0   BANK1   BANK2   BANK3   BANK4   BANK5   BANK6   BANK7
  2457 ;;      Params:         0       0       0       0       0       0       0       0       0
  2458 ;;      Locals:         0       0       0       0       0       0       0       0       0
  2459 ;;      Temps:          0       0       0       0       0       0       0       0       0
  2460 ;;      Totals:         0       0       0       0       0       0       0       0       0
  2461 ;;Total ram usage:        0 bytes
  2462 ;; Hardware stack levels used:    1
  2463 ;; Hardware stack levels required when called:    1
  2464 ;; This function calls:
  2465 ;;		Nothing
  2466 ;; This function is called by:
  2467 ;;		_main
  2468 ;; This function uses a non-reentrant model
  2469 ;;
  2470                           
  2471                           	psect	text1
  2472  0000AC                     __ptext1:
  2473                           	opt stack 0
  2474  0000AC                     _setupADCR0:
  2475                           	opt stack 29
  2476                           
  2477                           ;TS.c: 24: PORTA = 0;
  2478                           
  2479                           ;incstack = 0
  2480  0000AC  0E00               	movlw	0
  2481  0000AE  6E80               	movwf	3968,c	;volatile
  2482                           
  2483                           ;TS.c: 25: TRISA = 0b00000011;
  2484  0000B0  0E03               	movlw	3
  2485  0000B2  6E92               	movwf	3986,c	;volatile
  2486                           
  2487                           ;TS.c: 29: ADCON0 = 0b00000001;
  2488  0000B4  0E01               	movlw	1
  2489  0000B6  6EC2               	movwf	4034,c	;volatile
  2490                           
  2491                           ;TS.c: 30: ADCON1 = 0b00111110;
  2492  0000B8  0E3E               	movlw	62
  2493  0000BA  6EC1               	movwf	4033,c	;volatile
  2494                           
  2495                           ;TS.c: 31: ADCON2bits.ADFM = 1;
  2496  0000BC  8EC0               	bsf	4032,7,c	;volatile
  2497                           
  2498                           ;TS.c: 33: PIR1bits.ADIF = 0;
  2499  0000BE  9C9E               	bcf	3998,6,c	;volatile
  2500                           
  2501                           ;TS.c: 34: PIE1bits.ADIE = 1;
  2502  0000C0  8C9D               	bsf	3997,6,c	;volatile
  2503                           
  2504                           ;TS.c: 37: INTCONbits.GIE = 1;
  2505  0000C2  8EF2               	bsf	intcon,7,c	;volatile
  2506                           
  2507                           ;TS.c: 38: INTCONbits.PEIE = 1;
  2508  0000C4  8CF2               	bsf	intcon,6,c	;volatile
  2509                           
  2510                           ;TS.c: 40: ADCON0bits.GODONE = 0;
  2511  0000C6  92C2               	bcf	4034,1,c	;volatile
  2512  0000C8  0012               	return		;funcret
  2513  0000CA                     __end_of_setupADCR0:
  2514                           	opt stack 0
  2515                           tblptru	equ	0xFF8
  2516                           intcon	equ	0xFF2
  2517                           
  2518 ;; *************** function _ISR *****************
  2519 ;; Defined at:
  2520 ;;		line 11 in file "glcd_library/TS.c"
  2521 ;; Parameters:    Size  Location     Type
  2522 ;;		None
  2523 ;; Auto vars:     Size  Location     Type
  2524 ;;		None
  2525 ;; Return value:  Size  Location     Type
  2526 ;;                  1    wreg      void 
  2527 ;; Registers used:
  2528 ;;		None
  2529 ;; Tracked objects:
  2530 ;;		On entry : 0/0
  2531 ;;		On exit  : 0/0
  2532 ;;		Unchanged: 0/0
  2533 ;; Data sizes:     COMRAM   BANK0   BANK1   BANK2   BANK3   BANK4   BANK5   BANK6   BANK7
  2534 ;;      Params:         0       0       0       0       0       0       0       0       0
  2535 ;;      Locals:         0       0       0       0       0       0       0       0       0
  2536 ;;      Temps:         18       0       0       0       0       0       0       0       0
  2537 ;;      Totals:        18       0       0       0       0       0       0       0       0
  2538 ;;Total ram usage:       18 bytes
  2539 ;; Hardware stack levels used:    1
  2540 ;; This function calls:
  2541 ;;		Nothing
  2542 ;; This function is called by:
  2543 ;;		Interrupt level 2
  2544 ;; This function uses a non-reentrant model
  2545 ;;
  2546                           
  2547                           	psect	intcode
  2548  000008                     __pintcode:
  2549                           	opt stack 0
  2550  000008                     _ISR:
  2551                           	opt stack 29
  2552                           
  2553                           ;incstack = 0
  2554  000008  8215               	bsf	btemp,1,c	;set compiler interrupt flag (level 2)
  2555  00000A  ED09  F000         	call	int_func,f	;refresh shadow registers
  2556                           tblptru	equ	0xFF8
  2557                           intcon	equ	0xFF2
  2558                           
  2559                           	psect	intcode_body
  2560  000012                     __pintcode_body:
  2561                           	opt stack 29
  2562  000012                     int_func:
  2563                           	opt stack 29
  2564  000012  0006               	pop		; remove dummy address from shadow register refresh
  2565  000014  CFFA F001          	movff	pclath,??_ISR
  2566  000018  CFFB F002          	movff	pclatu,??_ISR+1
  2567  00001C  CFE9 F003          	movff	fsr0l,??_ISR+2
  2568  000020  CFEA F004          	movff	fsr0h,??_ISR+3
  2569  000024  CFE1 F005          	movff	fsr1l,??_ISR+4
  2570  000028  CFE2 F006          	movff	fsr1h,??_ISR+5
  2571  00002C  CFD9 F007          	movff	fsr2l,??_ISR+6
  2572  000030  CFDA F008          	movff	fsr2h,??_ISR+7
  2573  000034  CFF3 F009          	movff	prodl,??_ISR+8
  2574  000038  CFF4 F00A          	movff	prodh,??_ISR+9
  2575  00003C  CFF6 F00B          	movff	tblptrl,??_ISR+10
  2576  000040  CFF7 F00C          	movff	tblptrh,??_ISR+11
  2577  000044  CFF8 F00D          	movff	tblptru,??_ISR+12
  2578  000048  CFF5 F00E          	movff	tablat,??_ISR+13
  2579  00004C  C015  F00F         	movff	btemp,??_ISR+14
  2580  000050  C016  F010         	movff	btemp+1,??_ISR+15
  2581  000054  C017  F011         	movff	btemp+2,??_ISR+16
  2582  000058  C018  F012         	movff	btemp+3,??_ISR+17
  2583                           
  2584                           ;TS.c: 13: if(PIR1bits.ADIF)
  2585  00005C  BC9E               	btfsc	3998,6,c	;volatile
  2586                           
  2587                           ;TS.c: 14: {
  2588                           ;TS.c: 15: PIR1bits.ADIF = 0;
  2589  00005E  9C9E               	bcf	3998,6,c	;volatile
  2590  000060  C012  F018         	movff	??_ISR+17,btemp+3
  2591  000064  C011  F017         	movff	??_ISR+16,btemp+2
  2592  000068  C010  F016         	movff	??_ISR+15,btemp+1
  2593  00006C  C00F  F015         	movff	??_ISR+14,btemp
  2594  000070  C00E  FFF5         	movff	??_ISR+13,tablat
  2595  000074  C00D  FFF8         	movff	??_ISR+12,tblptru
  2596  000078  C00C  FFF7         	movff	??_ISR+11,tblptrh
  2597  00007C  C00B  FFF6         	movff	??_ISR+10,tblptrl
  2598  000080  C00A  FFF4         	movff	??_ISR+9,prodh
  2599  000084  C009  FFF3         	movff	??_ISR+8,prodl
  2600  000088  C008  FFDA         	movff	??_ISR+7,fsr2h
  2601  00008C  C007  FFD9         	movff	??_ISR+6,fsr2l
  2602  000090  C006  FFE2         	movff	??_ISR+5,fsr1h
  2603  000094  C005  FFE1         	movff	??_ISR+4,fsr1l
  2604  000098  C004  FFEA         	movff	??_ISR+3,fsr0h
  2605  00009C  C003  FFE9         	movff	??_ISR+2,fsr0l
  2606  0000A0  C002  FFFB         	movff	??_ISR+1,pclatu
  2607  0000A4  C001  FFFA         	movff	??_ISR,pclath
  2608  0000A8  9215               	bcf	btemp,1,c	;clear compiler interrupt flag (level 2)
  2609  0000AA  0011               	retfie		f
  2610  0000AC                     __end_of_ISR:
  2611                           	opt stack 0
  2612                           pclatu	equ	0xFFB
  2613                           pclath	equ	0xFFA
  2614                           tblptru	equ	0xFF8
  2615                           tblptrh	equ	0xFF7
  2616                           tblptrl	equ	0xFF6
  2617                           tablat	equ	0xFF5
  2618                           prodh	equ	0xFF4
  2619                           prodl	equ	0xFF3
  2620                           intcon	equ	0xFF2
  2621                           fsr0h	equ	0xFEA
  2622                           fsr0l	equ	0xFE9
  2623                           fsr1h	equ	0xFE2
  2624                           fsr1l	equ	0xFE1
  2625                           fsr2h	equ	0xFDA
  2626                           fsr2l	equ	0xFD9
  2627                           pclatu	equ	0xFFB
  2628                           pclath	equ	0xFFA
  2629                           tblptru	equ	0xFF8
  2630                           tblptrh	equ	0xFF7
  2631                           tblptrl	equ	0xFF6
  2632                           tablat	equ	0xFF5
  2633                           prodh	equ	0xFF4
  2634                           prodl	equ	0xFF3
  2635                           intcon	equ	0xFF2
  2636                           fsr0h	equ	0xFEA
  2637                           fsr0l	equ	0xFE9
  2638                           fsr1h	equ	0xFE2
  2639                           fsr1l	equ	0xFE1
  2640                           fsr2h	equ	0xFDA
  2641                           fsr2l	equ	0xFD9
  2642                           
  2643                           	psect	rparam
  2644  0000                     pclatu	equ	0xFFB
  2645                           pclath	equ	0xFFA
  2646                           tblptru	equ	0xFF8
  2647                           tblptrh	equ	0xFF7
  2648                           tblptrl	equ	0xFF6
  2649                           tablat	equ	0xFF5
  2650                           prodh	equ	0xFF4
  2651                           prodl	equ	0xFF3
  2652                           intcon	equ	0xFF2
  2653                           fsr0h	equ	0xFEA
  2654                           fsr0l	equ	0xFE9
  2655                           fsr1h	equ	0xFE2
  2656                           fsr1l	equ	0xFE1
  2657                           fsr2h	equ	0xFDA
  2658                           fsr2l	equ	0xFD9
  2659                           
  2660                           	psect	temp
  2661  000015                     btemp:
  2662                           	opt stack 0
  2663  000015                     	ds	1
  2664  0000                     int$flags	set	btemp
  2665  0000                     wtemp6	set	btemp+1
  2666                           pclatu	equ	0xFFB
  2667                           pclath	equ	0xFFA
  2668                           tblptru	equ	0xFF8
  2669                           tblptrh	equ	0xFF7
  2670                           tblptrl	equ	0xFF6
  2671                           tablat	equ	0xFF5
  2672                           prodh	equ	0xFF4
  2673                           prodl	equ	0xFF3
  2674                           intcon	equ	0xFF2
  2675                           fsr0h	equ	0xFEA
  2676                           fsr0l	equ	0xFE9
  2677                           fsr1h	equ	0xFE2
  2678                           fsr1l	equ	0xFE1
  2679                           fsr2h	equ	0xFDA
  2680                           fsr2l	equ	0xFD9


Data Sizes:
    Strings     0
    Constant    2243
    Data        0
    BSS         2
    Persistent  0
    Stack       0

Auto Spaces:
    Space          Size  Autos    Used
    COMRAM           94     18      20
    BANK0           160      0       0
    BANK1           256      0       0
    BANK2           256      0       0
    BANK3           256      0       0
    BANK4           256      0       0
    BANK5           256      0       0
    BANK6           256      0       0
    BANK7           256      0       0

Pointer List with Targets:

    None.

Critical Paths under _main in COMRAM

    None.

Critical Paths under _ISR in COMRAM

    None.

Critical Paths under _main in BANK0

    None.

Critical Paths under _ISR in BANK0

    None.

Critical Paths under _main in BANK1

    None.

Critical Paths under _ISR in BANK1

    None.

Critical Paths under _main in BANK2

    None.

Critical Paths under _ISR in BANK2

    None.

Critical Paths under _main in BANK3

    None.

Critical Paths under _ISR in BANK3

    None.

Critical Paths under _main in BANK4

    None.

Critical Paths under _ISR in BANK4

    None.

Critical Paths under _main in BANK5

    None.

Critical Paths under _ISR in BANK5

    None.

Critical Paths under _main in BANK6

    None.

Critical Paths under _ISR in BANK6

    None.

Critical Paths under _main in BANK7

    None.

Critical Paths under _ISR in BANK7

    None.

Call Graph Tables:

 ---------------------------------------------------------------------------------
 (Depth) Function   	        Calls       Base Space   Used Autos Params    Refs
 ---------------------------------------------------------------------------------
 (0) _main                                                 0     0      0       0
                         _setupADCR0
 ---------------------------------------------------------------------------------
 (1) _setupADCR0                                           0     0      0       0
 ---------------------------------------------------------------------------------
 Estimated maximum stack depth 1
 ---------------------------------------------------------------------------------
 (Depth) Function   	        Calls       Base Space   Used Autos Params    Refs
 ---------------------------------------------------------------------------------
 (2) _ISR                                                 18    18      0       0
                                              0 COMRAM    18    18      0
 ---------------------------------------------------------------------------------
 Estimated maximum stack depth 2
 ---------------------------------------------------------------------------------

 Call Graph Graphs:

 _main (ROOT)
   _setupADCR0

 _ISR (ROOT)

 Address spaces:
Name               Size   Autos  Total    Cost      Usage
BIGRAM             7FF      0       0      21        0.0%
EEDATA             100      0       0       0        0.0%
BITBANK7           100      0       0      18        0.0%
BANK7              100      0       0      19        0.0%
BITBANK6           100      0       0      16        0.0%
BANK6              100      0       0      17        0.0%
BITBANK5           100      0       0      14        0.0%
BANK5              100      0       0      15        0.0%
BITBANK4           100      0       0      12        0.0%
BANK4              100      0       0      13        0.0%
BITBANK3           100      0       0      10        0.0%
BANK3              100      0       0      11        0.0%
BITBANK2           100      0       0       8        0.0%
BANK2              100      0       0       9        0.0%
BITBANK1           100      0       0       6        0.0%
BANK1              100      0       0       7        0.0%
BITBANK0            A0      0       0       4        0.0%
BANK0               A0      0       0       5        0.0%
BITCOMRAM           5E      0       0       0        0.0%
COMRAM              5E     12      14       1       21.3%
BITSFR               0      0       0     200        0.0%
SFR                  0      0       0     200        0.0%
STACK                0      0       0       2        0.0%
NULL                 0      0       0       0        0.0%
ABS                  0      0      14      20        0.0%
DATA                 0      0      14       3        0.0%
CODE                 0      0       0       0        0.0%


Microchip Technology PIC18 Macro Assembler V1.43 build -156212558 
Symbol Table                                                                                   Sun Nov 14 22:10:32 2021

                      _x 0014                        _y 0013                       l21 00D6  
                     l23 00D8                      _ISR 0008             __CFG_FOSC$HS 000000  
           __CFG_LVP$OFF 000000                     ?_ISR 0001             __CFG_WDT$OFF 000000  
                   _LATD 000F8C                     _main 00CA                     fsr0h 000FEA  
                   fsr1h 000FE2                     fsr2h 000FDA                     fsr0l 000FE9  
                   fsr1l 000FE1                     fsr2l 000FD9                     btemp 0015  
                   prodh 000FF4                     prodl 000FF3                     start 000E  
        __end_of_Font3x6 7FFE             ___param_bank 000000          __end_of_Font8x8 7F3B  
                  ??_ISR 0001                    ?_main 0001                    _PORTA 000F80  
                  _PORTB 000F81                    _PORTC 000F82                    _PORTD 000F83  
                  _TRISA 000F92                    _TRISB 000F93                    _TRISC 000F94  
                  _TRISD 000F95                    pclath 000FFA                    tablat 000FF5  
                  wtemp6 0016          __initialization 00E6             __end_of_main 00E6  
                 ??_main 0013            __activetblptr 000002                   _ADCON0 000FC2  
                 _ADCON1 000FC1                   _ADRESH 000FC4                   _ADRESL 000FC3  
           __mediumconst 773A                   tblptrh 000FF7                   tblptrl 000FF6  
                 tblptru 000FF8               __accesstop 0060  __end_of__initialization 00EA  
          ___rparam_used 000001           __pcstackCOMRAM 0001                  _Font3x6 7F3B  
                _Font8x8 773B                  __Hparam 0000                  __Lparam 0000  
                __pcinit 00E6                  __ramtop 0800                  __ptext0 00CA  
                __ptext1 00AC             __size_of_ISR 00A4           __pintcode_body 0012  
   end_of_initialization 00EA            __Lmediumconst 773A                  int_func 0012  
             _setupADCR0 00AC                _PORTEbits 000F84      start_initialization 00E6  
            __end_of_ISR 00AC              ?_setupADCR0 0001              __pbssCOMRAM 0013  
              __pintcode 0008            __pmediumconst 773A      __size_of_setupADCR0 001E  
               _LATBbits 000F8A                 _PIE1bits 000F9D                 _PIR1bits 000F9E  
             _ADCON0bits 000FC2               _ADCON2bits 000FC0                 __Hrparam 0000  
               __Lrparam 0000            __size_of_main 001C             ??_setupADCR0 0013  
               int$flags 0015               _INTCONbits 000FF2                 intlevel2 0000  
     __end_of_setupADCR0 00CA  
